

Microchip MPLAB XC8 Assembler V2.10 build 88905656 
                                                                                               Wed Jul 15 03:09:40 2020

Microchip MPLAB XC8 C Compiler v2.10 (Free license) build 20190730164152 Og1 
     1                           	processor	16F877A
     2                           	opt	pw 120
     3                           	opt	flic
     4                           	psect	idataBANK0,global,class=CODE,delta=2
     5                           	psect	nvBANK0,global,class=BANK0,space=1,delta=1
     6                           	psect	cinit,global,class=CODE,merge=1,delta=2
     7                           	psect	bssCOMMON,global,class=COMMON,space=1,delta=1
     8                           	psect	bssBANK0,global,class=BANK0,space=1,delta=1
     9                           	psect	dataBANK0,global,class=BANK0,space=1,delta=1
    10                           	psect	bssBANK1,global,class=BANK1,space=1,delta=1
    11                           	psect	clrtext,global,class=CODE,delta=2
    12                           	psect	cstackCOMMON,global,class=COMMON,space=1,delta=1
    13                           	psect	cstackBANK0,global,class=BANK0,space=1,delta=1
    14                           	psect	maintext,global,class=CODE,split=1,delta=2
    15                           	psect	text1,local,class=CODE,merge=1,delta=2
    16                           	psect	text2,local,class=CODE,merge=1,delta=2
    17                           	psect	text3,local,class=CODE,merge=1,delta=2
    18                           	psect	text4,local,class=CODE,merge=1,delta=2
    19                           	psect	text5,local,class=CODE,merge=1,delta=2
    20                           	psect	text6,local,class=CODE,merge=1,delta=2
    21                           	psect	text7,local,class=CODE,merge=1,delta=2
    22                           	psect	text8,local,class=CODE,merge=1,delta=2
    23                           	psect	text9,local,class=CODE,merge=1,delta=2
    24                           	psect	text10,local,class=CODE,merge=1,delta=2
    25                           	psect	text11,local,class=CODE,merge=1,delta=2
    26                           	psect	text12,local,class=CODE,merge=1,delta=2,group=1
    27                           	psect	text13,local,class=CODE,merge=1,delta=2
    28                           	psect	text14,local,class=CODE,merge=1,delta=2
    29                           	psect	text15,local,class=CODE,merge=1,delta=2
    30                           	psect	text16,local,class=CODE,merge=1,delta=2
    31                           	psect	text17,local,class=CODE,merge=1,delta=2
    32                           	psect	text18,local,class=CODE,merge=1,delta=2
    33                           	psect	text19,local,class=CODE,merge=1,delta=2
    34                           	psect	text20,local,class=CODE,merge=1,delta=2
    35                           	psect	text21,local,class=CODE,merge=1,delta=2
    36                           	psect	text22,local,class=CODE,merge=1,delta=2
    37                           	psect	text23,local,class=CODE,merge=1,delta=2
    38                           	psect	text24,local,class=CODE,merge=1,delta=2,group=1
    39                           	psect	text25,local,class=CODE,merge=1,delta=2,group=1
    40                           	psect	text26,local,class=CODE,merge=1,delta=2,group=1
    41                           	psect	text27,local,class=CODE,merge=1,delta=2,group=1
    42                           	psect	text28,local,class=CODE,merge=1,delta=2
    43                           	psect	text29,local,class=CODE,merge=1,delta=2,group=1
    44                           	psect	text30,local,class=CODE,merge=1,delta=2
    45                           	psect	text31,local,class=CODE,merge=1,delta=2
    46                           	psect	text32,local,class=CODE,merge=1,delta=2
    47                           	psect	text33,local,class=CODE,merge=1,delta=2
    48                           	psect	text34,local,class=CODE,merge=1,delta=2
    49                           	psect	text35,local,class=CODE,merge=1,delta=2
    50                           	psect	text36,local,class=CODE,merge=1,delta=2
    51                           	psect	text37,local,class=CODE,merge=1,delta=2
    52                           	psect	text38,local,class=CODE,merge=1,delta=2
    53                           	psect	text39,local,class=CODE,merge=1,delta=2
    54                           	psect	text40,local,class=CODE,merge=1,delta=2
    55                           	psect	text41,local,class=CODE,merge=1,delta=2
    56                           	psect	text42,local,class=CODE,merge=1,delta=2
    57                           	psect	text43,local,class=CODE,merge=1,delta=2
    58                           	psect	text44,local,class=CODE,merge=1,delta=2,group=1
    59                           	psect	text45,local,class=CODE,merge=1,delta=2,group=1
    60                           	psect	text46,local,class=CODE,merge=1,delta=2
    61                           	psect	text47,local,class=CODE,merge=1,delta=2
    62                           	psect	intentry,global,class=CODE,delta=2
    63                           	psect	text48,local,class=CODE,merge=1,delta=2
    64                           	psect	text49,local,class=CODE,merge=1,delta=2
    65                           	psect	text50,local,class=CODE,merge=1,delta=2
    66                           	psect	text51,local,class=CODE,merge=1,delta=2
    67                           	psect	text52,local,class=CODE,merge=1,delta=2
    68                           	dabs	1,0x7E,2
    69  0000                     
    70                           ; Version 2.10
    71                           ; Generated 31/07/2019 GMT
    72                           ; 
    73                           ; Copyright © 2019, Microchip Technology Inc. and its subsidiaries ("Microchip")
    74                           ; All rights reserved.
    75                           ; 
    76                           ; This software is developed by Microchip Technology Inc. and its subsidiaries ("Microch
      +                          ip").
    77                           ; 
    78                           ; Redistribution and use in source and binary forms, with or without modification, are
    79                           ; permitted provided that the following conditions are met:
    80                           ; 
    81                           ;     1. Redistributions of source code must retain the above copyright notice, this lis
      +                          t of
    82                           ;        conditions and the following disclaimer.
    83                           ; 
    84                           ;     2. Redistributions in binary form must reproduce the above copyright notice, this 
      +                          list
    85                           ;        of conditions and the following disclaimer in the documentation and/or other
    86                           ;        materials provided with the distribution.
    87                           ; 
    88                           ;     3. Microchip's name may not be used to endorse or promote products derived from th
      +                          is
    89                           ;        software without specific prior written permission.
    90                           ; 
    91                           ; THIS SOFTWARE IS PROVIDED BY MICROCHIP "AS IS" AND ANY EXPRESS OR IMPLIED WARRANTIES,
    92                           ; INCLUDING, BUT NOT LIMITED TO, THE IMPLIED WARRANTIES OF MERCHANTABILITY AND FITNESS F
      +                          OR
    93                           ; PURPOSE ARE DISCLAIMED.  IN NO EVENT SHALL MICROCHIP BE LIABLE FOR ANY DIRECT, INDIREC
      +                          T,
    94                           ; INCIDENTAL, SPECIAL, EXEMPLARY, OR CONSEQUENTIAL DAMAGES (INCLUDING BUT NOT LIMITED TO
    95                           ; PROCUREMENT OF SUBSTITUTE GOODS OR SERVICES; LOSS OF USE, DATA OR PROFITS; OR BUSINESS
    96                           ; INTERRUPTION) HOWSOEVER CAUSED AND ON ANY THEORY OF LIABILITY, WHETHER IN CONTRACT, ST
      +                          RICT
    97                           ; LIABILITY, OR TORT (INCLUDING NEGLIGENCE OR OTHERWISE) ARISING IN ANY WAY OUT OF THE U
      +                          SE OF
    98                           ; THIS SOFTWARE, EVEN IF ADVISED OF THE POSSIBILITY OF SUCH DAMAGE.
    99                           ; 
   100                           ; 
   101                           ; Code-generator required, PIC16F877A Definitions
   102                           ; 
   103                           ; SFR Addresses
   104  0000                     	;# 
   105  0001                     	;# 
   106  0002                     	;# 
   107  0003                     	;# 
   108  0004                     	;# 
   109  0005                     	;# 
   110  0006                     	;# 
   111  0007                     	;# 
   112  0008                     	;# 
   113  0009                     	;# 
   114  000A                     	;# 
   115  000B                     	;# 
   116  000C                     	;# 
   117  000D                     	;# 
   118  000E                     	;# 
   119  000E                     	;# 
   120  000F                     	;# 
   121  0010                     	;# 
   122  0011                     	;# 
   123  0012                     	;# 
   124  0013                     	;# 
   125  0014                     	;# 
   126  0015                     	;# 
   127  0015                     	;# 
   128  0016                     	;# 
   129  0017                     	;# 
   130  0018                     	;# 
   131  0019                     	;# 
   132  001A                     	;# 
   133  001B                     	;# 
   134  001B                     	;# 
   135  001C                     	;# 
   136  001D                     	;# 
   137  001E                     	;# 
   138  001F                     	;# 
   139  0081                     	;# 
   140  0085                     	;# 
   141  0086                     	;# 
   142  0087                     	;# 
   143  0088                     	;# 
   144  0089                     	;# 
   145  008C                     	;# 
   146  008D                     	;# 
   147  008E                     	;# 
   148  0091                     	;# 
   149  0092                     	;# 
   150  0093                     	;# 
   151  0094                     	;# 
   152  0098                     	;# 
   153  0099                     	;# 
   154  009C                     	;# 
   155  009D                     	;# 
   156  009E                     	;# 
   157  009F                     	;# 
   158  010C                     	;# 
   159  010D                     	;# 
   160  010E                     	;# 
   161  010F                     	;# 
   162  018C                     	;# 
   163  018D                     	;# 
   164  0000                     	;# 
   165  0001                     	;# 
   166  0002                     	;# 
   167  0003                     	;# 
   168  0004                     	;# 
   169  0005                     	;# 
   170  0006                     	;# 
   171  0007                     	;# 
   172  0008                     	;# 
   173  0009                     	;# 
   174  000A                     	;# 
   175  000B                     	;# 
   176  000C                     	;# 
   177  000D                     	;# 
   178  000E                     	;# 
   179  000E                     	;# 
   180  000F                     	;# 
   181  0010                     	;# 
   182  0011                     	;# 
   183  0012                     	;# 
   184  0013                     	;# 
   185  0014                     	;# 
   186  0015                     	;# 
   187  0015                     	;# 
   188  0016                     	;# 
   189  0017                     	;# 
   190  0018                     	;# 
   191  0019                     	;# 
   192  001A                     	;# 
   193  001B                     	;# 
   194  001B                     	;# 
   195  001C                     	;# 
   196  001D                     	;# 
   197  001E                     	;# 
   198  001F                     	;# 
   199  0081                     	;# 
   200  0085                     	;# 
   201  0086                     	;# 
   202  0087                     	;# 
   203  0088                     	;# 
   204  0089                     	;# 
   205  008C                     	;# 
   206  008D                     	;# 
   207  008E                     	;# 
   208  0091                     	;# 
   209  0092                     	;# 
   210  0093                     	;# 
   211  0094                     	;# 
   212  0098                     	;# 
   213  0099                     	;# 
   214  009C                     	;# 
   215  009D                     	;# 
   216  009E                     	;# 
   217  009F                     	;# 
   218  010C                     	;# 
   219  010D                     	;# 
   220  010E                     	;# 
   221  010F                     	;# 
   222  018C                     	;# 
   223  018D                     	;# 
   224  0000                     	;# 
   225  0001                     	;# 
   226  0002                     	;# 
   227  0003                     	;# 
   228  0004                     	;# 
   229  0005                     	;# 
   230  0006                     	;# 
   231  0007                     	;# 
   232  0008                     	;# 
   233  0009                     	;# 
   234  000A                     	;# 
   235  000B                     	;# 
   236  000C                     	;# 
   237  000D                     	;# 
   238  000E                     	;# 
   239  000E                     	;# 
   240  000F                     	;# 
   241  0010                     	;# 
   242  0011                     	;# 
   243  0012                     	;# 
   244  0013                     	;# 
   245  0014                     	;# 
   246  0015                     	;# 
   247  0015                     	;# 
   248  0016                     	;# 
   249  0017                     	;# 
   250  0018                     	;# 
   251  0019                     	;# 
   252  001A                     	;# 
   253  001B                     	;# 
   254  001B                     	;# 
   255  001C                     	;# 
   256  001D                     	;# 
   257  001E                     	;# 
   258  001F                     	;# 
   259  0081                     	;# 
   260  0085                     	;# 
   261  0086                     	;# 
   262  0087                     	;# 
   263  0088                     	;# 
   264  0089                     	;# 
   265  008C                     	;# 
   266  008D                     	;# 
   267  008E                     	;# 
   268  0091                     	;# 
   269  0092                     	;# 
   270  0093                     	;# 
   271  0094                     	;# 
   272  0098                     	;# 
   273  0099                     	;# 
   274  009C                     	;# 
   275  009D                     	;# 
   276  009E                     	;# 
   277  009F                     	;# 
   278  010C                     	;# 
   279  010D                     	;# 
   280  010E                     	;# 
   281  010F                     	;# 
   282  018C                     	;# 
   283  018D                     	;# 
   284  0000                     	;# 
   285  0001                     	;# 
   286  0002                     	;# 
   287  0003                     	;# 
   288  0004                     	;# 
   289  0005                     	;# 
   290  0006                     	;# 
   291  0007                     	;# 
   292  0008                     	;# 
   293  0009                     	;# 
   294  000A                     	;# 
   295  000B                     	;# 
   296  000C                     	;# 
   297  000D                     	;# 
   298  000E                     	;# 
   299  000E                     	;# 
   300  000F                     	;# 
   301  0010                     	;# 
   302  0011                     	;# 
   303  0012                     	;# 
   304  0013                     	;# 
   305  0014                     	;# 
   306  0015                     	;# 
   307  0015                     	;# 
   308  0016                     	;# 
   309  0017                     	;# 
   310  0018                     	;# 
   311  0019                     	;# 
   312  001A                     	;# 
   313  001B                     	;# 
   314  001B                     	;# 
   315  001C                     	;# 
   316  001D                     	;# 
   317  001E                     	;# 
   318  001F                     	;# 
   319  0081                     	;# 
   320  0085                     	;# 
   321  0086                     	;# 
   322  0087                     	;# 
   323  0088                     	;# 
   324  0089                     	;# 
   325  008C                     	;# 
   326  008D                     	;# 
   327  008E                     	;# 
   328  0091                     	;# 
   329  0092                     	;# 
   330  0093                     	;# 
   331  0094                     	;# 
   332  0098                     	;# 
   333  0099                     	;# 
   334  009C                     	;# 
   335  009D                     	;# 
   336  009E                     	;# 
   337  009F                     	;# 
   338  010C                     	;# 
   339  010D                     	;# 
   340  010E                     	;# 
   341  010F                     	;# 
   342  018C                     	;# 
   343  018D                     	;# 
   344  0000                     	;# 
   345  0001                     	;# 
   346  0002                     	;# 
   347  0003                     	;# 
   348  0004                     	;# 
   349  0005                     	;# 
   350  0006                     	;# 
   351  0007                     	;# 
   352  0008                     	;# 
   353  0009                     	;# 
   354  000A                     	;# 
   355  000B                     	;# 
   356  000C                     	;# 
   357  000D                     	;# 
   358  000E                     	;# 
   359  000E                     	;# 
   360  000F                     	;# 
   361  0010                     	;# 
   362  0011                     	;# 
   363  0012                     	;# 
   364  0013                     	;# 
   365  0014                     	;# 
   366  0015                     	;# 
   367  0015                     	;# 
   368  0016                     	;# 
   369  0017                     	;# 
   370  0018                     	;# 
   371  0019                     	;# 
   372  001A                     	;# 
   373  001B                     	;# 
   374  001B                     	;# 
   375  001C                     	;# 
   376  001D                     	;# 
   377  001E                     	;# 
   378  001F                     	;# 
   379  0081                     	;# 
   380  0085                     	;# 
   381  0086                     	;# 
   382  0087                     	;# 
   383  0088                     	;# 
   384  0089                     	;# 
   385  008C                     	;# 
   386  008D                     	;# 
   387  008E                     	;# 
   388  0091                     	;# 
   389  0092                     	;# 
   390  0093                     	;# 
   391  0094                     	;# 
   392  0098                     	;# 
   393  0099                     	;# 
   394  009C                     	;# 
   395  009D                     	;# 
   396  009E                     	;# 
   397  009F                     	;# 
   398  010C                     	;# 
   399  010D                     	;# 
   400  010E                     	;# 
   401  010F                     	;# 
   402  018C                     	;# 
   403  018D                     	;# 
   404  0000                     	;# 
   405  0001                     	;# 
   406  0002                     	;# 
   407  0003                     	;# 
   408  0004                     	;# 
   409  0005                     	;# 
   410  0006                     	;# 
   411  0007                     	;# 
   412  0008                     	;# 
   413  0009                     	;# 
   414  000A                     	;# 
   415  000B                     	;# 
   416  000C                     	;# 
   417  000D                     	;# 
   418  000E                     	;# 
   419  000E                     	;# 
   420  000F                     	;# 
   421  0010                     	;# 
   422  0011                     	;# 
   423  0012                     	;# 
   424  0013                     	;# 
   425  0014                     	;# 
   426  0015                     	;# 
   427  0015                     	;# 
   428  0016                     	;# 
   429  0017                     	;# 
   430  0018                     	;# 
   431  0019                     	;# 
   432  001A                     	;# 
   433  001B                     	;# 
   434  001B                     	;# 
   435  001C                     	;# 
   436  001D                     	;# 
   437  001E                     	;# 
   438  001F                     	;# 
   439  0081                     	;# 
   440  0085                     	;# 
   441  0086                     	;# 
   442  0087                     	;# 
   443  0088                     	;# 
   444  0089                     	;# 
   445  008C                     	;# 
   446  008D                     	;# 
   447  008E                     	;# 
   448  0091                     	;# 
   449  0092                     	;# 
   450  0093                     	;# 
   451  0094                     	;# 
   452  0098                     	;# 
   453  0099                     	;# 
   454  009C                     	;# 
   455  009D                     	;# 
   456  009E                     	;# 
   457  009F                     	;# 
   458  010C                     	;# 
   459  010D                     	;# 
   460  010E                     	;# 
   461  010F                     	;# 
   462  018C                     	;# 
   463  018D                     	;# 
   464  0000                     	;# 
   465  0001                     	;# 
   466  0002                     	;# 
   467  0003                     	;# 
   468  0004                     	;# 
   469  0005                     	;# 
   470  0006                     	;# 
   471  0007                     	;# 
   472  0008                     	;# 
   473  0009                     	;# 
   474  000A                     	;# 
   475  000B                     	;# 
   476  000C                     	;# 
   477  000D                     	;# 
   478  000E                     	;# 
   479  000E                     	;# 
   480  000F                     	;# 
   481  0010                     	;# 
   482  0011                     	;# 
   483  0012                     	;# 
   484  0013                     	;# 
   485  0014                     	;# 
   486  0015                     	;# 
   487  0015                     	;# 
   488  0016                     	;# 
   489  0017                     	;# 
   490  0018                     	;# 
   491  0019                     	;# 
   492  001A                     	;# 
   493  001B                     	;# 
   494  001B                     	;# 
   495  001C                     	;# 
   496  001D                     	;# 
   497  001E                     	;# 
   498  001F                     	;# 
   499  0081                     	;# 
   500  0085                     	;# 
   501  0086                     	;# 
   502  0087                     	;# 
   503  0088                     	;# 
   504  0089                     	;# 
   505  008C                     	;# 
   506  008D                     	;# 
   507  008E                     	;# 
   508  0091                     	;# 
   509  0092                     	;# 
   510  0093                     	;# 
   511  0094                     	;# 
   512  0098                     	;# 
   513  0099                     	;# 
   514  009C                     	;# 
   515  009D                     	;# 
   516  009E                     	;# 
   517  009F                     	;# 
   518  010C                     	;# 
   519  010D                     	;# 
   520  010E                     	;# 
   521  010F                     	;# 
   522  018C                     	;# 
   523  018D                     	;# 
   524  0000                     	;# 
   525  0001                     	;# 
   526  0002                     	;# 
   527  0003                     	;# 
   528  0004                     	;# 
   529  0005                     	;# 
   530  0006                     	;# 
   531  0007                     	;# 
   532  0008                     	;# 
   533  0009                     	;# 
   534  000A                     	;# 
   535  000B                     	;# 
   536  000C                     	;# 
   537  000D                     	;# 
   538  000E                     	;# 
   539  000E                     	;# 
   540  000F                     	;# 
   541  0010                     	;# 
   542  0011                     	;# 
   543  0012                     	;# 
   544  0013                     	;# 
   545  0014                     	;# 
   546  0015                     	;# 
   547  0015                     	;# 
   548  0016                     	;# 
   549  0017                     	;# 
   550  0018                     	;# 
   551  0019                     	;# 
   552  001A                     	;# 
   553  001B                     	;# 
   554  001B                     	;# 
   555  001C                     	;# 
   556  001D                     	;# 
   557  001E                     	;# 
   558  001F                     	;# 
   559  0081                     	;# 
   560  0085                     	;# 
   561  0086                     	;# 
   562  0087                     	;# 
   563  0088                     	;# 
   564  0089                     	;# 
   565  008C                     	;# 
   566  008D                     	;# 
   567  008E                     	;# 
   568  0091                     	;# 
   569  0092                     	;# 
   570  0093                     	;# 
   571  0094                     	;# 
   572  0098                     	;# 
   573  0099                     	;# 
   574  009C                     	;# 
   575  009D                     	;# 
   576  009E                     	;# 
   577  009F                     	;# 
   578  010C                     	;# 
   579  010D                     	;# 
   580  010E                     	;# 
   581  010F                     	;# 
   582  018C                     	;# 
   583  018D                     	;# 
   584  0000                     	;# 
   585  0001                     	;# 
   586  0002                     	;# 
   587  0003                     	;# 
   588  0004                     	;# 
   589  0005                     	;# 
   590  0006                     	;# 
   591  0007                     	;# 
   592  0008                     	;# 
   593  0009                     	;# 
   594  000A                     	;# 
   595  000B                     	;# 
   596  000C                     	;# 
   597  000D                     	;# 
   598  000E                     	;# 
   599  000E                     	;# 
   600  000F                     	;# 
   601  0010                     	;# 
   602  0011                     	;# 
   603  0012                     	;# 
   604  0013                     	;# 
   605  0014                     	;# 
   606  0015                     	;# 
   607  0015                     	;# 
   608  0016                     	;# 
   609  0017                     	;# 
   610  0018                     	;# 
   611  0019                     	;# 
   612  001A                     	;# 
   613  001B                     	;# 
   614  001B                     	;# 
   615  001C                     	;# 
   616  001D                     	;# 
   617  001E                     	;# 
   618  001F                     	;# 
   619  0081                     	;# 
   620  0085                     	;# 
   621  0086                     	;# 
   622  0087                     	;# 
   623  0088                     	;# 
   624  0089                     	;# 
   625  008C                     	;# 
   626  008D                     	;# 
   627  008E                     	;# 
   628  0091                     	;# 
   629  0092                     	;# 
   630  0093                     	;# 
   631  0094                     	;# 
   632  0098                     	;# 
   633  0099                     	;# 
   634  009C                     	;# 
   635  009D                     	;# 
   636  009E                     	;# 
   637  009F                     	;# 
   638  010C                     	;# 
   639  010D                     	;# 
   640  010E                     	;# 
   641  010F                     	;# 
   642  018C                     	;# 
   643  018D                     	;# 
   644  0000                     	;# 
   645  0001                     	;# 
   646  0002                     	;# 
   647  0003                     	;# 
   648  0004                     	;# 
   649  0005                     	;# 
   650  0006                     	;# 
   651  0007                     	;# 
   652  0008                     	;# 
   653  0009                     	;# 
   654  000A                     	;# 
   655  000B                     	;# 
   656  000C                     	;# 
   657  000D                     	;# 
   658  000E                     	;# 
   659  000E                     	;# 
   660  000F                     	;# 
   661  0010                     	;# 
   662  0011                     	;# 
   663  0012                     	;# 
   664  0013                     	;# 
   665  0014                     	;# 
   666  0015                     	;# 
   667  0015                     	;# 
   668  0016                     	;# 
   669  0017                     	;# 
   670  0018                     	;# 
   671  0019                     	;# 
   672  001A                     	;# 
   673  001B                     	;# 
   674  001B                     	;# 
   675  001C                     	;# 
   676  001D                     	;# 
   677  001E                     	;# 
   678  001F                     	;# 
   679  0081                     	;# 
   680  0085                     	;# 
   681  0086                     	;# 
   682  0087                     	;# 
   683  0088                     	;# 
   684  0089                     	;# 
   685  008C                     	;# 
   686  008D                     	;# 
   687  008E                     	;# 
   688  0091                     	;# 
   689  0092                     	;# 
   690  0093                     	;# 
   691  0094                     	;# 
   692  0098                     	;# 
   693  0099                     	;# 
   694  009C                     	;# 
   695  009D                     	;# 
   696  009E                     	;# 
   697  009F                     	;# 
   698  010C                     	;# 
   699  010D                     	;# 
   700  010E                     	;# 
   701  010F                     	;# 
   702  018C                     	;# 
   703  018D                     	;# 
   704  0000                     	;# 
   705  0001                     	;# 
   706  0002                     	;# 
   707  0003                     	;# 
   708  0004                     	;# 
   709  0005                     	;# 
   710  0006                     	;# 
   711  0007                     	;# 
   712  0008                     	;# 
   713  0009                     	;# 
   714  000A                     	;# 
   715  000B                     	;# 
   716  000C                     	;# 
   717  000D                     	;# 
   718  000E                     	;# 
   719  000E                     	;# 
   720  000F                     	;# 
   721  0010                     	;# 
   722  0011                     	;# 
   723  0012                     	;# 
   724  0013                     	;# 
   725  0014                     	;# 
   726  0015                     	;# 
   727  0015                     	;# 
   728  0016                     	;# 
   729  0017                     	;# 
   730  0018                     	;# 
   731  0019                     	;# 
   732  001A                     	;# 
   733  001B                     	;# 
   734  001B                     	;# 
   735  001C                     	;# 
   736  001D                     	;# 
   737  001E                     	;# 
   738  001F                     	;# 
   739  0081                     	;# 
   740  0085                     	;# 
   741  0086                     	;# 
   742  0087                     	;# 
   743  0088                     	;# 
   744  0089                     	;# 
   745  008C                     	;# 
   746  008D                     	;# 
   747  008E                     	;# 
   748  0091                     	;# 
   749  0092                     	;# 
   750  0093                     	;# 
   751  0094                     	;# 
   752  0098                     	;# 
   753  0099                     	;# 
   754  009C                     	;# 
   755  009D                     	;# 
   756  009E                     	;# 
   757  009F                     	;# 
   758  010C                     	;# 
   759  010D                     	;# 
   760  010E                     	;# 
   761  010F                     	;# 
   762  018C                     	;# 
   763  018D                     	;# 
   764  0000                     	;# 
   765  0001                     	;# 
   766  0002                     	;# 
   767  0003                     	;# 
   768  0004                     	;# 
   769  0005                     	;# 
   770  0006                     	;# 
   771  0007                     	;# 
   772  0008                     	;# 
   773  0009                     	;# 
   774  000A                     	;# 
   775  000B                     	;# 
   776  000C                     	;# 
   777  000D                     	;# 
   778  000E                     	;# 
   779  000E                     	;# 
   780  000F                     	;# 
   781  0010                     	;# 
   782  0011                     	;# 
   783  0012                     	;# 
   784  0013                     	;# 
   785  0014                     	;# 
   786  0015                     	;# 
   787  0015                     	;# 
   788  0016                     	;# 
   789  0017                     	;# 
   790  0018                     	;# 
   791  0019                     	;# 
   792  001A                     	;# 
   793  001B                     	;# 
   794  001B                     	;# 
   795  001C                     	;# 
   796  001D                     	;# 
   797  001E                     	;# 
   798  001F                     	;# 
   799  0081                     	;# 
   800  0085                     	;# 
   801  0086                     	;# 
   802  0087                     	;# 
   803  0088                     	;# 
   804  0089                     	;# 
   805  008C                     	;# 
   806  008D                     	;# 
   807  008E                     	;# 
   808  0091                     	;# 
   809  0092                     	;# 
   810  0093                     	;# 
   811  0094                     	;# 
   812  0098                     	;# 
   813  0099                     	;# 
   814  009C                     	;# 
   815  009D                     	;# 
   816  009E                     	;# 
   817  009F                     	;# 
   818  010C                     	;# 
   819  010D                     	;# 
   820  010E                     	;# 
   821  010F                     	;# 
   822  018C                     	;# 
   823  018D                     	;# 
   824                           
   825                           	psect	idataBANK0
   826  07FE                     __pidataBANK0:	
   827                           
   828                           ;initializer for _Temp_Measure_indication
   829  07FE  3401               	retlw	1
   830                           
   831                           	psect	nvBANK0
   832  0067                     __pnvBANK0:	
   833  0067                     _First_Temp_Measured:	
   834  0067                     	ds	2
   835  0008                     _PORTD	set	8
   836  0010                     _T1CONbits	set	16
   837  001E                     _ADRESH	set	30
   838  001F                     _ADCON0bits	set	31
   839  0006                     _PORTBbits	set	6
   840  0013                     _SSPBUF	set	19
   841  0014                     _SSPCON	set	20
   842  0007                     _PORTCbits	set	7
   843  0001                     _TMR0	set	1
   844  000B                     _INTCONbits	set	11
   845  000F                     _TMR1H	set	15
   846  000E                     _TMR1L	set	14
   847  000C                     _PIR1bits	set	12
   848  002B                     _RA3	set	43
   849  002C                     _RA4	set	44
   850  0059                     _INTF	set	89
   851  0030                     _RB0	set	48
   852  0031                     _RB1	set	49
   853  0032                     _RB2	set	50
   854  005C                     _INTE	set	92
   855  005E                     _PEIE	set	94
   856  005F                     _GIE	set	95
   857  0088                     _TRISD	set	136
   858  008C                     _PIE1bits	set	140
   859  009E                     _ADRESL	set	158
   860  0085                     _TRISAbits	set	133
   861  009F                     _ADCON1bits	set	159
   862  0091                     _SSPCON2bits	set	145
   863  0094                     _SSPSTAT	set	148
   864  0093                     _SSPADD	set	147
   865  0091                     _SSPCON2	set	145
   866  0087                     _TRISCbits	set	135
   867  0081                     _OPTION_REGbits	set	129
   868  0086                     _TRISBbits	set	134
   869  048C                     _ACKEN	set	1164
   870  048D                     _ACKDT	set	1165
   871                           
   872                           ; #config settings
   873  0000                     
   874                           	psect	cinit
   875  000F                     start_initialization:	
   876  000F                     __initialization:	
   877                           
   878                           ; Initialize objects allocated to BANK0
   879  000F  120A  118A  27FE  120A  118A  	fcall	__pidataBANK0	;fetch initializer
   880  0014  00E9               	movwf	__pdataBANK0& (0+127)
   881                           
   882                           ; Clear objects allocated to BANK1
   883  0015  1383               	bcf	3,7	;select IRP bank0
   884  0016  30A0               	movlw	low __pbssBANK1
   885  0017  0084               	movwf	4
   886  0018  30B4               	movlw	low (__pbssBANK1+20)
   887  0019  120A  158A  2445  120A  118A  	fcall	clear_ram0
   888                           
   889                           ; Clear objects allocated to BANK0
   890  001E  01E0               	clrf	__pbssBANK0& (0+127)
   891  001F  01E1               	clrf	(__pbssBANK0+1)& (0+127)
   892  0020  01E2               	clrf	(__pbssBANK0+2)& (0+127)
   893  0021  01E3               	clrf	(__pbssBANK0+3)& (0+127)
   894  0022  01E4               	clrf	(__pbssBANK0+4)& (0+127)
   895  0023  01E5               	clrf	(__pbssBANK0+5)& (0+127)
   896  0024  01E6               	clrf	(__pbssBANK0+6)& (0+127)
   897                           
   898                           ; Clear objects allocated to COMMON
   899  0025  01F8               	clrf	__pbssCOMMON& (0+127)
   900  0026  01F9               	clrf	(__pbssCOMMON+1)& (0+127)
   901  0027  01FA               	clrf	(__pbssCOMMON+2)& (0+127)
   902  0028                     end_of_initialization:	
   903                           ;End of C runtime variable initialization code
   904                           
   905  0028                     __end_of__initialization:	
   906  0028  0183               	clrf	3
   907  0029  120A  158A  2E0B   	ljmp	_main	;jump to C main() function
   908                           
   909                           	psect	bssCOMMON
   910  0078                     __pbssCOMMON:	
   911  0078                     _Temp_Measure_counter:	
   912  0078                     	ds	1
   913  0079                     _SettingMode_counter:	
   914  0079                     	ds	1
   915  007A                     _Current_State:	
   916  007A                     	ds	1
   917                           
   918                           	psect	bssBANK0
   919  0060                     __pbssBANK0:	
   920  0060                     _Actual_Temp_Avg:	
   921  0060                     	ds	2
   922  0062                     _Actual_Temp:	
   923  0062                     	ds	2
   924  0064                     _Desired_Temp:	
   925  0064                     	ds	2
   926  0066                     _Toggle_indication:	
   927  0066                     	ds	1
   928                           
   929                           	psect	dataBANK0
   930  0069                     __pdataBANK0:	
   931  0069                     _Temp_Measure_indication:	
   932  0069                     	ds	1
   933                           
   934                           	psect	bssBANK1
   935  00A0                     __pbssBANK1:	
   936  00A0                     _Temp_Measurments:	
   937  00A0                     	ds	20
   938                           
   939                           	psect	clrtext
   940  0C45                     clear_ram0:	
   941                           ;	Called with FSR containing the base address, and
   942                           ;	W with the last address+1
   943                           
   944  0C45  0064               	clrwdt	;clear the watchdog before getting into this loop
   945  0C46                     clrloop0:	
   946  0C46  0180               	clrf	0	;clear RAM location pointed to by FSR
   947  0C47  0A84               	incf	4,f	;increment pointer
   948  0C48  0604               	xorwf	4,w	;XOR with final address
   949  0C49  1903               	btfsc	3,2	;have we reached the end yet?
   950  0C4A  3400               	retlw	0	;all done for this memory range, return
   951  0C4B  0604               	xorwf	4,w	;XOR again to restore value
   952  0C4C  2C46               	goto	clrloop0	;do the next byte
   953                           
   954                           	psect	cstackCOMMON
   955  0070                     __pcstackCOMMON:	
   956  0070                     ?_I2C_Init:	
   957  0070                     ?_I2C_Start:	
   958                           ; 1 bytes @ 0x0
   959                           
   960  0070                     ?_I2C_Write_Byte:	
   961                           ; 1 bytes @ 0x0
   962                           
   963  0070                     ?_I2C_Read_Byte:	
   964                           ; 1 bytes @ 0x0
   965                           
   966  0070                     ??_I2C_Read_Byte:	
   967                           ; 1 bytes @ 0x0
   968                           
   969  0070                     ?_I2C_Stop:	
   970                           ; 1 bytes @ 0x0
   971                           
   972  0070                     ?_Sys_Init:	
   973                           ; 1 bytes @ 0x0
   974                           
   975  0070                     ?_Task_OFF_State:	
   976                           ; 1 bytes @ 0x0
   977                           
   978  0070                     ?_Task_ON_State:	
   979                           ; 1 bytes @ 0x0
   980                           
   981  0070                     ?_Task_ChangeTemp_State:	
   982                           ; 1 bytes @ 0x0
   983                           
   984  0070                     ?_Sev_Seg_Disable:	
   985                           ; 1 bytes @ 0x0
   986                           
   987  0070                     ?_Adjust_Temp:	
   988                           ; 1 bytes @ 0x0
   989                           
   990  0070                     ?_Sev_Seg_Init:	
   991                           ; 1 bytes @ 0x0
   992                           
   993  0070                     ?_Temp_Sensor_ADC_Init:	
   994                           ; 1 bytes @ 0x0
   995                           
   996  0070                     ?_TMR1_Init:	
   997                           ; 1 bytes @ 0x0
   998                           
   999  0070                     ?_TMR0_Init:	
  1000                           ; 1 bytes @ 0x0
  1001                           
  1002  0070                     ?_Temp_Array_Init:	
  1003                           ; 1 bytes @ 0x0
  1004                           
  1005  0070                     ?_Buttons_Init:	
  1006                           ; 1 bytes @ 0x0
  1007                           
  1008  0070                     ?_ON_Button_EXTI_Init:	
  1009                           ; 1 bytes @ 0x0
  1010                           
  1011  0070                     ?_Up_Pressed:	
  1012                           ; 1 bytes @ 0x0
  1013                           
  1014  0070                     ?_Down_Pressed:	
  1015                           ; 1 bytes @ 0x0
  1016                           
  1017  0070                     ?_EEPROM_Init:	
  1018                           ; 1 bytes @ 0x0
  1019                           
  1020  0070                     ?_EEPROM_Read:	
  1021                           ; 1 bytes @ 0x0
  1022                           
  1023  0070                     ?_System_Interrupts:	
  1024                           ; 1 bytes @ 0x0
  1025                           
  1026  0070                     ?_main:	
  1027                           ; 1 bytes @ 0x0
  1028                           
  1029  0070                     ?_Fan_Init:	
  1030                           ; 1 bytes @ 0x0
  1031                           
  1032  0070                     ?_Fan_Start:	
  1033                           ; 1 bytes @ 0x0
  1034                           
  1035  0070                     ?_Fan_Stop:	
  1036                           ; 1 bytes @ 0x0
  1037                           
  1038  0070                     ?_Heater_Init:	
  1039                           ; 1 bytes @ 0x0
  1040                           
  1041  0070                     ?_Heater_Start:	
  1042                           ; 1 bytes @ 0x0
  1043                           
  1044  0070                     ?_Heater_Stop:	
  1045                           ; 1 bytes @ 0x0
  1046                           
  1047  0070                     ?_I2C_Hold:	
  1048                           ; 1 bytes @ 0x0
  1049                           
  1050  0070                     ?_Heating_LED_Init:	
  1051                           ; 1 bytes @ 0x0
  1052                           
  1053  0070                     ?_Heating_LED_On:	
  1054                           ; 1 bytes @ 0x0
  1055                           
  1056  0070                     ?_Heating_LED_Off:	
  1057                           ; 1 bytes @ 0x0
  1058                           
  1059  0070                     ?_Heating_LED_Toggle:	
  1060                           ; 1 bytes @ 0x0
  1061                           
  1062  0070                     ?_Sev_Seg_Enable:	
  1063                           ; 1 bytes @ 0x0
  1064                           
  1065  0070                     ?i1_I2C_Hold:	
  1066                           ; 1 bytes @ 0x0
  1067                           
  1068  0070                     ??i1_I2C_Hold:	
  1069                           ; 1 bytes @ 0x0
  1070                           
  1071  0070                     ?i1_I2C_Start:	
  1072                           ; 1 bytes @ 0x0
  1073                           
  1074  0070                     ??i1_I2C_Start:	
  1075                           ; 1 bytes @ 0x0
  1076                           
  1077  0070                     ?i1_I2C_Write_Byte:	
  1078                           ; 1 bytes @ 0x0
  1079                           
  1080  0070                     ??i1_I2C_Write_Byte:	
  1081                           ; 1 bytes @ 0x0
  1082                           
  1083  0070                     i1I2C_Write_Byte@val:	
  1084                           ; 1 bytes @ 0x0
  1085                           
  1086                           
  1087                           ; 1 bytes @ 0x0
  1088  0070                     	ds	1
  1089  0071                     I2C_Read_Byte@ack:	
  1090                           
  1091                           ; 1 bytes @ 0x1
  1092  0071                     	ds	1
  1093  0072                     I2C_Read_Byte@incoming:	
  1094                           
  1095                           ; 1 bytes @ 0x2
  1096  0072                     	ds	1
  1097  0073                     ??_EEPROM_Read:	
  1098  0073                     EEPROM_Read@Address:	
  1099                           ; 1 bytes @ 0x3
  1100                           
  1101                           
  1102                           ; 1 bytes @ 0x3
  1103  0073                     	ds	1
  1104  0074                     ??_System_Interrupts:	
  1105                           
  1106                           ; 1 bytes @ 0x4
  1107  0074                     	ds	4
  1108                           
  1109                           	psect	cstackBANK0
  1110  0020                     __pcstackBANK0:	
  1111  0020                     ??_I2C_Start:	
  1112  0020                     ??_I2C_Write_Byte:	
  1113                           ; 1 bytes @ 0x0
  1114                           
  1115  0020                     ??_I2C_Stop:	
  1116                           ; 1 bytes @ 0x0
  1117                           
  1118  0020                     ??_Task_OFF_State:	
  1119                           ; 1 bytes @ 0x0
  1120                           
  1121  0020                     ??_Sev_Seg_Disable:	
  1122                           ; 1 bytes @ 0x0
  1123                           
  1124  0020                     ?_Add_New_Temp:	
  1125                           ; 1 bytes @ 0x0
  1126                           
  1127  0020                     ??_Sev_Seg_Init:	
  1128                           ; 1 bytes @ 0x0
  1129                           
  1130  0020                     ??_Temp_Sensor_ADC_Init:	
  1131                           ; 1 bytes @ 0x0
  1132                           
  1133  0020                     ??_TMR1_Init:	
  1134                           ; 1 bytes @ 0x0
  1135                           
  1136  0020                     ??_TMR0_Init:	
  1137                           ; 1 bytes @ 0x0
  1138                           
  1139  0020                     ??_Buttons_Init:	
  1140                           ; 1 bytes @ 0x0
  1141                           
  1142  0020                     ??_ON_Button_EXTI_Init:	
  1143                           ; 1 bytes @ 0x0
  1144                           
  1145  0020                     ??_Up_Pressed:	
  1146                           ; 1 bytes @ 0x0
  1147                           
  1148  0020                     ??_Down_Pressed:	
  1149                           ; 1 bytes @ 0x0
  1150                           
  1151  0020                     ??_Fan_Init:	
  1152                           ; 1 bytes @ 0x0
  1153                           
  1154  0020                     ??_Fan_Start:	
  1155                           ; 1 bytes @ 0x0
  1156                           
  1157  0020                     ??_Fan_Stop:	
  1158                           ; 1 bytes @ 0x0
  1159                           
  1160  0020                     ??_Heater_Init:	
  1161                           ; 1 bytes @ 0x0
  1162                           
  1163  0020                     ??_Heater_Start:	
  1164                           ; 1 bytes @ 0x0
  1165                           
  1166  0020                     ??_Heater_Stop:	
  1167                           ; 1 bytes @ 0x0
  1168                           
  1169  0020                     ??_I2C_Hold:	
  1170                           ; 1 bytes @ 0x0
  1171                           
  1172  0020                     ??_Heating_LED_Init:	
  1173                           ; 1 bytes @ 0x0
  1174                           
  1175  0020                     ??_Heating_LED_On:	
  1176                           ; 1 bytes @ 0x0
  1177                           
  1178  0020                     ??_Heating_LED_Off:	
  1179                           ; 1 bytes @ 0x0
  1180                           
  1181  0020                     ??_Heating_LED_Toggle:	
  1182                           ; 1 bytes @ 0x0
  1183                           
  1184  0020                     ?_Sev_Seg_Write:	
  1185                           ; 1 bytes @ 0x0
  1186                           
  1187  0020                     ??_Sev_Seg_Enable:	
  1188                           ; 1 bytes @ 0x0
  1189                           
  1190  0020                     ?__Umul8_16:	
  1191                           ; 1 bytes @ 0x0
  1192                           
  1193  0020                     ?___wmul:	
  1194                           ; 2 bytes @ 0x0
  1195                           
  1196  0020                     ?___lwdiv:	
  1197                           ; 2 bytes @ 0x0
  1198                           
  1199  0020                     ?___lwmod:	
  1200                           ; 2 bytes @ 0x0
  1201                           
  1202  0020                     ?___xxtofl:	
  1203                           ; 2 bytes @ 0x0
  1204                           
  1205  0020                     I2C_Write_Byte@val:	
  1206                           ; 4 bytes @ 0x0
  1207                           
  1208  0020                     __Umul8_16@multiplicand:	
  1209                           ; 1 bytes @ 0x0
  1210                           
  1211  0020                     Add_New_Temp@Newest_Value:	
  1212                           ; 1 bytes @ 0x0
  1213                           
  1214  0020                     Sev_Seg_Write@Num:	
  1215                           ; 2 bytes @ 0x0
  1216                           
  1217  0020                     ___wmul@multiplier:	
  1218                           ; 2 bytes @ 0x0
  1219                           
  1220  0020                     ___lwdiv@divisor:	
  1221                           ; 2 bytes @ 0x0
  1222                           
  1223  0020                     ___lwmod@divisor:	
  1224                           ; 2 bytes @ 0x0
  1225                           
  1226  0020                     ___xxtofl@val:	
  1227                           ; 2 bytes @ 0x0
  1228                           
  1229                           
  1230                           ; 4 bytes @ 0x0
  1231  0020                     	ds	1
  1232  0021                     ??_Adjust_Temp:	
  1233  0021                     ?_EEPROM_Write:	
  1234                           ; 1 bytes @ 0x1
  1235                           
  1236  0021                     EEPROM_Write@Value:	
  1237                           ; 1 bytes @ 0x1
  1238                           
  1239                           
  1240                           ; 1 bytes @ 0x1
  1241  0021                     	ds	1
  1242  0022                     ??_Add_New_Temp:	
  1243  0022                     ??__Umul8_16:	
  1244                           ; 1 bytes @ 0x2
  1245                           
  1246  0022                     ??_EEPROM_Write:	
  1247                           ; 1 bytes @ 0x2
  1248                           
  1249  0022                     ??_Sev_Seg_Write:	
  1250                           ; 1 bytes @ 0x2
  1251                           
  1252  0022                     EEPROM_Write@Address:	
  1253                           ; 1 bytes @ 0x2
  1254                           
  1255  0022                     Sev_Seg_Enable@Disp:	
  1256                           ; 1 bytes @ 0x2
  1257                           
  1258  0022                     ___wmul@multiplicand:	
  1259                           ; 1 bytes @ 0x2
  1260                           
  1261  0022                     ___lwdiv@dividend:	
  1262                           ; 2 bytes @ 0x2
  1263                           
  1264  0022                     ___lwmod@dividend:	
  1265                           ; 2 bytes @ 0x2
  1266                           
  1267                           
  1268                           ; 2 bytes @ 0x2
  1269  0022                     	ds	2
  1270  0024                     ??___wmul:	
  1271  0024                     ??___lwdiv:	
  1272                           ; 1 bytes @ 0x4
  1273                           
  1274  0024                     ??___lwmod:	
  1275                           ; 1 bytes @ 0x4
  1276                           
  1277  0024                     ??___xxtofl:	
  1278                           ; 1 bytes @ 0x4
  1279                           
  1280  0024                     ___wmul@product:	
  1281                           ; 1 bytes @ 0x4
  1282                           
  1283  0024                     __Umul8_16@product:	
  1284                           ; 2 bytes @ 0x4
  1285                           
  1286                           
  1287                           ; 2 bytes @ 0x4
  1288  0024                     	ds	1
  1289  0025                     ___lwmod@counter:	
  1290  0025                     ___lwdiv@quotient:	
  1291                           ; 1 bytes @ 0x5
  1292                           
  1293                           
  1294                           ; 2 bytes @ 0x5
  1295  0025                     	ds	1
  1296  0026                     ?___aldiv:	
  1297  0026                     __Umul8_16@word_mpld:	
  1298                           ; 4 bytes @ 0x6
  1299                           
  1300  0026                     ___aldiv@divisor:	
  1301                           ; 2 bytes @ 0x6
  1302                           
  1303                           
  1304                           ; 4 bytes @ 0x6
  1305  0026                     	ds	1
  1306  0027                     ___lwdiv@counter:	
  1307                           
  1308                           ; 1 bytes @ 0x7
  1309  0027                     	ds	1
  1310  0028                     ?_Sev_Seg_Write_99:	
  1311  0028                     ?_Calc_Temp_Avg:	
  1312                           ; 1 bytes @ 0x8
  1313                           
  1314  0028                     Add_New_Temp@Array:	
  1315                           ; 2 bytes @ 0x8
  1316                           
  1317  0028                     ___xxtofl@sign:	
  1318                           ; 1 bytes @ 0x8
  1319                           
  1320  0028                     __Umul8_16@multiplier:	
  1321                           ; 1 bytes @ 0x8
  1322                           
  1323  0028                     Sev_Seg_Write_99@Num:	
  1324                           ; 1 bytes @ 0x8
  1325                           
  1326                           
  1327                           ; 2 bytes @ 0x8
  1328  0028                     	ds	1
  1329  0029                     Add_New_Temp@element:	
  1330  0029                     ___xxtofl@exp:	
  1331                           ; 1 bytes @ 0x9
  1332                           
  1333                           
  1334                           ; 1 bytes @ 0x9
  1335  0029                     	ds	1
  1336  002A                     ??_Calc_Temp_Avg:	
  1337  002A                     ??_Sev_Seg_Write_99:	
  1338                           ; 1 bytes @ 0xA
  1339                           
  1340  002A                     ___aldiv@dividend:	
  1341                           ; 1 bytes @ 0xA
  1342                           
  1343  002A                     ___xxtofl@arg:	
  1344                           ; 4 bytes @ 0xA
  1345                           
  1346                           
  1347                           ; 4 bytes @ 0xA
  1348  002A                     	ds	2
  1349  002C                     Sev_Seg_Write_99@Units:	
  1350                           
  1351                           ; 1 bytes @ 0xC
  1352  002C                     	ds	1
  1353  002D                     Sev_Seg_Write_99@Tens:	
  1354                           
  1355                           ; 1 bytes @ 0xD
  1356  002D                     	ds	1
  1357  002E                     ??_Task_ChangeTemp_State:	
  1358  002E                     ??___aldiv:	
  1359                           ; 1 bytes @ 0xE
  1360                           
  1361  002E                     ?___flmul:	
  1362                           ; 1 bytes @ 0xE
  1363                           
  1364  002E                     Calc_Temp_Avg@Avg:	
  1365                           ; 4 bytes @ 0xE
  1366                           
  1367  002E                     ___flmul@b:	
  1368                           ; 2 bytes @ 0xE
  1369                           
  1370                           
  1371                           ; 4 bytes @ 0xE
  1372  002E                     	ds	1
  1373  002F                     ___aldiv@counter:	
  1374                           
  1375                           ; 1 bytes @ 0xF
  1376  002F                     	ds	1
  1377  0030                     Calc_Temp_Avg@Array:	
  1378  0030                     ___aldiv@sign:	
  1379                           ; 1 bytes @ 0x10
  1380                           
  1381                           
  1382                           ; 1 bytes @ 0x10
  1383  0030                     	ds	1
  1384  0031                     Calc_Temp_Avg@Sum:	
  1385  0031                     ___aldiv@quotient:	
  1386                           ; 2 bytes @ 0x11
  1387                           
  1388                           
  1389                           ; 4 bytes @ 0x11
  1390  0031                     	ds	1
  1391  0032                     ___flmul@a:	
  1392                           
  1393                           ; 4 bytes @ 0x12
  1394  0032                     	ds	1
  1395  0033                     Calc_Temp_Avg@element:	
  1396                           
  1397                           ; 1 bytes @ 0x13
  1398  0033                     	ds	2
  1399  0035                     ??_I2C_Init:	
  1400                           
  1401                           ; 1 bytes @ 0x15
  1402  0035                     	ds	1
  1403  0036                     ??___flmul:	
  1404                           
  1405                           ; 1 bytes @ 0x16
  1406  0036                     	ds	1
  1407  0037                     I2C_Init@feq_K:	
  1408                           
  1409                           ; 1 bytes @ 0x17
  1410  0037                     	ds	1
  1411  0038                     ??_EEPROM_Init:	
  1412                           
  1413                           ; 1 bytes @ 0x18
  1414  0038                     	ds	3
  1415  003B                     ___flmul@sign:	
  1416                           
  1417                           ; 1 bytes @ 0x1B
  1418  003B                     	ds	1
  1419  003C                     ___flmul@grs:	
  1420                           
  1421                           ; 4 bytes @ 0x1C
  1422  003C                     	ds	4
  1423  0040                     ___flmul@aexp:	
  1424                           
  1425                           ; 1 bytes @ 0x20
  1426  0040                     	ds	1
  1427  0041                     ___flmul@bexp:	
  1428                           
  1429                           ; 1 bytes @ 0x21
  1430  0041                     	ds	1
  1431  0042                     ___flmul@prod:	
  1432                           
  1433                           ; 4 bytes @ 0x22
  1434  0042                     	ds	4
  1435  0046                     ___flmul@temp:	
  1436                           
  1437                           ; 2 bytes @ 0x26
  1438  0046                     	ds	2
  1439  0048                     ?___fltol:	
  1440  0048                     ___fltol@f1:	
  1441                           ; 4 bytes @ 0x28
  1442                           
  1443                           
  1444                           ; 4 bytes @ 0x28
  1445  0048                     	ds	4
  1446  004C                     ??___fltol:	
  1447                           
  1448                           ; 1 bytes @ 0x2C
  1449  004C                     	ds	5
  1450  0051                     ___fltol@sign1:	
  1451                           
  1452                           ; 1 bytes @ 0x31
  1453  0051                     	ds	1
  1454  0052                     ___fltol@exp1:	
  1455                           
  1456                           ; 1 bytes @ 0x32
  1457  0052                     	ds	1
  1458  0053                     ?_Temp_Sensor_ADC_Read:	
  1459                           
  1460                           ; 2 bytes @ 0x33
  1461  0053                     	ds	2
  1462  0055                     ??_Temp_Sensor_ADC_Read:	
  1463                           
  1464                           ; 1 bytes @ 0x35
  1465  0055                     	ds	4
  1466  0059                     Temp_Sensor_ADC_Read@result:	
  1467                           
  1468                           ; 2 bytes @ 0x39
  1469  0059                     	ds	2
  1470  005B                     ??_Task_ON_State:	
  1471  005B                     ??_Temp_Array_Init:	
  1472                           ; 1 bytes @ 0x3B
  1473                           
  1474                           
  1475                           ; 1 bytes @ 0x3B
  1476  005B                     	ds	1
  1477  005C                     Temp_Array_Init@i:	
  1478                           
  1479                           ; 1 bytes @ 0x3C
  1480  005C                     	ds	1
  1481  005D                     ??_Sys_Init:	
  1482                           
  1483                           ; 1 bytes @ 0x3D
  1484  005D                     	ds	1
  1485  005E                     ??_main:	
  1486                           
  1487                           ; 1 bytes @ 0x3E
  1488  005E                     	ds	2
  1489                           
  1490                           	psect	maintext
  1491  0E0B                     __pmaintext:	
  1492 ;;
  1493 ;;Main: autosize = 0, tempsize = 2, incstack = 0, save=0
  1494 ;;
  1495 ;; *************** function _main *****************
  1496 ;; Defined at:
  1497 ;;		line 114 in file "Electric_Water_Heater.c"
  1498 ;; Parameters:    Size  Location     Type
  1499 ;;		None
  1500 ;; Auto vars:     Size  Location     Type
  1501 ;;		None
  1502 ;; Return value:  Size  Location     Type
  1503 ;;                  1    wreg      void 
  1504 ;; Registers used:
  1505 ;;		wreg, fsr0l, fsr0h, status,2, status,0, btemp+1, pclath, cstack
  1506 ;; Tracked objects:
  1507 ;;		On entry : B00/0
  1508 ;;		On exit  : 0/0
  1509 ;;		Unchanged: 0/0
  1510 ;; Data sizes:     COMMON   BANK0   BANK1   BANK3   BANK2
  1511 ;;      Params:         0       0       0       0       0
  1512 ;;      Locals:         0       0       0       0       0
  1513 ;;      Temps:          0       2       0       0       0
  1514 ;;      Totals:         0       2       0       0       0
  1515 ;;Total ram usage:        2 bytes
  1516 ;; Hardware stack levels required when called:    9
  1517 ;; This function calls:
  1518 ;;		_Sys_Init
  1519 ;;		_Task_ChangeTemp_State
  1520 ;;		_Task_OFF_State
  1521 ;;		_Task_ON_State
  1522 ;; This function is called by:
  1523 ;;		Startup code after reset
  1524 ;; This function uses a non-reentrant model
  1525 ;;
  1526                           
  1527                           
  1528                           ;psect for function _main
  1529  0E0B                     _main:	
  1530  0E0B                     l2627:	
  1531                           ;incstack = 0
  1532 ;; hardware stack exceeded
  1533                           ; Regs used in _main: [wreg-fsr0h+status,2+status,0+btemp+1+pclath+cstack]
  1534                           
  1535                           
  1536                           ;Electric_Water_Heater.c: 116:        Sys_Init();
  1537  0E0B  120A  158A  27B7  120A  158A  	fcall	_Sys_Init
  1538  0E10  2E22               	goto	l2637
  1539  0E11                     l2629:	
  1540                           
  1541                           ;Electric_Water_Heater.c: 124:                     Task_OFF_State();
  1542  0E11  120A  158A  24B8  120A  158A  	fcall	_Task_OFF_State
  1543                           
  1544                           ;Electric_Water_Heater.c: 125:                    break;
  1545  0E16  2E22               	goto	l2637
  1546  0E17                     l2631:	
  1547                           
  1548                           ;Electric_Water_Heater.c: 128:                    Task_ON_State();
  1549  0E17  120A  118A  2782  120A  158A  	fcall	_Task_ON_State
  1550                           
  1551                           ;Electric_Water_Heater.c: 129:                    break;
  1552  0E1C  2E22               	goto	l2637
  1553  0E1D                     l2633:	
  1554                           
  1555                           ;Electric_Water_Heater.c: 132:                       Task_ChangeTemp_State();
  1556  0E1D  120A  118A  2657  120A  158A  	fcall	_Task_ChangeTemp_State
  1557  0E22                     l2637:	
  1558                           ;Electric_Water_Heater.c: 133:                    break;
  1559                           
  1560  0E22  087A               	movf	_Current_State,w	;volatile
  1561  0E23  1283               	bcf	3,5	;RP0=0, select bank0
  1562  0E24  1303               	bcf	3,6	;RP1=0, select bank0
  1563  0E25  00DE               	movwf	??_main
  1564  0E26  01DF               	clrf	??_main+1
  1565                           
  1566                           ; Switch on 2 bytes has been partitioned into a top level switch of size 1, and 1 sub-sw
      +                          itches
  1567                           ; Switch size 1, requested type "simple"
  1568                           ; Number of cases is 1, Range of values is 0 to 0
  1569                           ; switch strategies available:
  1570                           ; Name         Instructions Cycles
  1571                           ; simple_byte            4     3 (average)
  1572                           ; direct_byte           11     8 (fixed)
  1573                           ; jumptable            260     6 (fixed)
  1574                           ;	Chosen strategy is simple_byte
  1575  0E27  085F               	movf	??_main+1,w
  1576  0E28  3A00               	xorlw	0	; case 0
  1577  0E29  1903               	skipnz
  1578  0E2A  2E2C               	goto	l2717
  1579  0E2B  2E22               	goto	l2637
  1580  0E2C                     l2717:	
  1581                           
  1582                           ; Switch size 1, requested type "simple"
  1583                           ; Number of cases is 3, Range of values is 0 to 2
  1584                           ; switch strategies available:
  1585                           ; Name         Instructions Cycles
  1586                           ; simple_byte           10     6 (average)
  1587                           ; direct_byte           17     8 (fixed)
  1588                           ; jumptable            260     6 (fixed)
  1589                           ;	Chosen strategy is simple_byte
  1590  0E2C  085E               	movf	??_main,w
  1591  0E2D  3A00               	xorlw	0	; case 0
  1592  0E2E  1903               	skipnz
  1593  0E2F  2E11               	goto	l2629
  1594  0E30  3A01               	xorlw	1	; case 1
  1595  0E31  1903               	skipnz
  1596  0E32  2E17               	goto	l2631
  1597  0E33  3A03               	xorlw	3	; case 2
  1598  0E34  1903               	skipnz
  1599  0E35  2E1D               	goto	l2633
  1600  0E36  2E22               	goto	l2637
  1601  0E37  120A  118A  280C   	ljmp	start
  1602  0E3A                     __end_of_main:	
  1603                           
  1604                           	psect	text1
  1605  0782                     __ptext1:	
  1606 ;; *************** function _Task_ON_State *****************
  1607 ;; Defined at:
  1608 ;;		line 17 in file "System.c"
  1609 ;; Parameters:    Size  Location     Type
  1610 ;;		None
  1611 ;; Auto vars:     Size  Location     Type
  1612 ;;		None
  1613 ;; Return value:  Size  Location     Type
  1614 ;;                  1    wreg      void 
  1615 ;; Registers used:
  1616 ;;		wreg, fsr0l, fsr0h, status,2, status,0, btemp+1, pclath, cstack
  1617 ;; Tracked objects:
  1618 ;;		On entry : 0/0
  1619 ;;		On exit  : 0/0
  1620 ;;		Unchanged: 0/0
  1621 ;; Data sizes:     COMMON   BANK0   BANK1   BANK3   BANK2
  1622 ;;      Params:         0       0       0       0       0
  1623 ;;      Locals:         0       0       0       0       0
  1624 ;;      Temps:          0       1       0       0       0
  1625 ;;      Totals:         0       1       0       0       0
  1626 ;;Total ram usage:        1 bytes
  1627 ;; Hardware stack levels used:    1
  1628 ;; Hardware stack levels required when called:    7
  1629 ;; This function calls:
  1630 ;;		_Add_New_Temp
  1631 ;;		_Adjust_Temp
  1632 ;;		_Calc_Temp_Avg
  1633 ;;		_Down_Pressed
  1634 ;;		_Sev_Seg_Disable
  1635 ;;		_Sev_Seg_Write_99
  1636 ;;		_Temp_Sensor_ADC_Read
  1637 ;;		_Up_Pressed
  1638 ;; This function is called by:
  1639 ;;		_main
  1640 ;; This function uses a non-reentrant model
  1641 ;;
  1642                           
  1643                           
  1644                           ;psect for function _Task_ON_State
  1645  0782                     _Task_ON_State:	
  1646  0782                     l2529:	
  1647                           ;incstack = 0
  1648                           ; Regs used in _Task_ON_State: [wreg-fsr0h+status,2+status,0+btemp+1+pclath+cstack]
  1649                           
  1650                           
  1651                           ;System.c: 23:                     if(Temp_Measure_indication == 1){
  1652  0782  1283               	bcf	3,5	;RP0=0, select bank0
  1653  0783  1303               	bcf	3,6	;RP1=0, select bank0
  1654  0784  0369               	decf	_Temp_Measure_indication,w	;volatile
  1655  0785  1D03               	btfss	3,2
  1656  0786  2F88               	goto	u2421
  1657  0787  2F89               	goto	u2420
  1658  0788                     u2421:	
  1659  0788  2FAB               	goto	l2539
  1660  0789                     u2420:	
  1661  0789                     l2531:	
  1662                           
  1663                           ;System.c: 25:                             Actual_Temp = Temp_Sensor_ADC_Read();
  1664  0789  120A  118A  2726  120A  118A  	fcall	_Temp_Sensor_ADC_Read
  1665  078E  1283               	bcf	3,5	;RP0=0, select bank0
  1666  078F  1303               	bcf	3,6	;RP1=0, select bank0
  1667  0790  0854               	movf	?_Temp_Sensor_ADC_Read+1,w
  1668  0791  00E3               	movwf	_Actual_Temp+1
  1669  0792  0853               	movf	?_Temp_Sensor_ADC_Read,w
  1670  0793  00E2               	movwf	_Actual_Temp
  1671  0794                     l2533:	
  1672                           
  1673                           ;System.c: 26:                             Add_New_Temp(Temp_Measurments,Actual_Temp);
  1674  0794  0863               	movf	_Actual_Temp+1,w
  1675  0795  00A1               	movwf	Add_New_Temp@Newest_Value+1
  1676  0796  0862               	movf	_Actual_Temp,w
  1677  0797  00A0               	movwf	Add_New_Temp@Newest_Value
  1678  0798  30A0               	movlw	(low (_Temp_Measurments| 0))& (0+255)
  1679  0799  120A  158A  263A  120A  118A  	fcall	_Add_New_Temp
  1680  079E                     l2535:	
  1681                           
  1682                           ;System.c: 27:                             Actual_Temp_Avg = Calc_Temp_Avg(Temp_Measurme
      +                          nts);
  1683  079E  30A0               	movlw	(low (_Temp_Measurments| 0))& (0+255)
  1684  079F  120A  158A  26A6  120A  118A  	fcall	_Calc_Temp_Avg
  1685  07A4  1283               	bcf	3,5	;RP0=0, select bank0
  1686  07A5  1303               	bcf	3,6	;RP1=0, select bank0
  1687  07A6  0829               	movf	?_Calc_Temp_Avg+1,w
  1688  07A7  00E1               	movwf	_Actual_Temp_Avg+1
  1689  07A8  0828               	movf	?_Calc_Temp_Avg,w
  1690  07A9  00E0               	movwf	_Actual_Temp_Avg
  1691  07AA                     l2537:	
  1692                           
  1693                           ;System.c: 28:                             Temp_Measure_indication = 0 ;
  1694  07AA  01E9               	clrf	_Temp_Measure_indication	;volatile
  1695  07AB                     l2539:	
  1696                           
  1697                           ;System.c: 31:                     Sev_Seg_Write_99(Actual_Temp);
  1698  07AB  0863               	movf	_Actual_Temp+1,w
  1699  07AC  00A9               	movwf	Sev_Seg_Write_99@Num+1
  1700  07AD  0862               	movf	_Actual_Temp,w
  1701  07AE  00A8               	movwf	Sev_Seg_Write_99@Num
  1702  07AF  120A  118A  26C1  120A  118A  	fcall	_Sev_Seg_Write_99
  1703  07B4                     l2541:	
  1704                           
  1705                           ;System.c: 32:                     Adjust_Temp();
  1706  07B4  120A  118A  24E6  120A  118A  	fcall	_Adjust_Temp
  1707  07B9                     l2543:	
  1708                           
  1709                           ;System.c: 34:                      if(Up_Pressed() == 1 || Down_Pressed() == 1)
  1710  07B9  120A  158A  2527  120A  118A  	fcall	_Up_Pressed
  1711  07BE  3A01               	xorlw	1
  1712  07BF  1903               	skipnz
  1713  07C0  2FC2               	goto	u2431
  1714  07C1  2FC3               	goto	u2430
  1715  07C2                     u2431:	
  1716  07C2  2FCD               	goto	l2547
  1717  07C3                     u2430:	
  1718  07C3                     l2545:	
  1719  07C3  120A  158A  24F1  120A  118A  	fcall	_Down_Pressed
  1720  07C8  3A01               	xorlw	1
  1721  07C9  1D03               	skipz
  1722  07CA  2FCC               	goto	u2441
  1723  07CB  2FCD               	goto	u2440
  1724  07CC                     u2441:	
  1725  07CC  2FD9               	goto	l314
  1726  07CD                     u2440:	
  1727  07CD                     l2547:	
  1728                           
  1729                           ;System.c: 35:                        {;System.c: 36:                       Sev_Seg_Disa
      +                          ble();
  1730  07CD  120A  158A  241E  120A  118A  	fcall	_Sev_Seg_Disable
  1731  07D2                     l2549:	
  1732                           
  1733                           ;System.c: 37:                       SettingMode_counter = 0 ;
  1734  07D2  01F9               	clrf	_SettingMode_counter	;volatile
  1735  07D3                     l2551:	
  1736                           
  1737                           ;System.c: 38:                       Current_State = 2 ;
  1738  07D3  3002               	movlw	2
  1739  07D4  1283               	bcf	3,5	;RP0=0, select bank0
  1740  07D5  1303               	bcf	3,6	;RP1=0, select bank0
  1741  07D6  00DB               	movwf	??_Task_ON_State
  1742  07D7  085B               	movf	??_Task_ON_State,w
  1743  07D8  00FA               	movwf	_Current_State	;volatile
  1744  07D9                     l314:	
  1745  07D9  0008               	return
  1746  07DA                     __end_of_Task_ON_State:	
  1747                           
  1748                           	psect	text2
  1749  04E6                     __ptext2:	
  1750 ;; *************** function _Adjust_Temp *****************
  1751 ;; Defined at:
  1752 ;;		line 101 in file "System.c"
  1753 ;; Parameters:    Size  Location     Type
  1754 ;;		None
  1755 ;; Auto vars:     Size  Location     Type
  1756 ;;		None
  1757 ;; Return value:  Size  Location     Type
  1758 ;;                  1    wreg      void 
  1759 ;; Registers used:
  1760 ;;		wreg, status,2, status,0, pclath, cstack
  1761 ;; Tracked objects:
  1762 ;;		On entry : 0/0
  1763 ;;		On exit  : 0/0
  1764 ;;		Unchanged: 0/0
  1765 ;; Data sizes:     COMMON   BANK0   BANK1   BANK3   BANK2
  1766 ;;      Params:         0       0       0       0       0
  1767 ;;      Locals:         0       0       0       0       0
  1768 ;;      Temps:          0       2       0       0       0
  1769 ;;      Totals:         0       2       0       0       0
  1770 ;;Total ram usage:        2 bytes
  1771 ;; Hardware stack levels used:    1
  1772 ;; Hardware stack levels required when called:    5
  1773 ;; This function calls:
  1774 ;;		_Fan_Start
  1775 ;;		_Fan_Stop
  1776 ;;		_Heater_Start
  1777 ;;		_Heater_Stop
  1778 ;;		_Heating_LED_Off
  1779 ;;		_Heating_LED_On
  1780 ;;		_Heating_LED_Toggle
  1781 ;; This function is called by:
  1782 ;;		_Task_ON_State
  1783 ;; This function uses a non-reentrant model
  1784 ;;
  1785                           
  1786                           
  1787                           ;psect for function _Adjust_Temp
  1788  04E6                     _Adjust_Temp:	
  1789  04E6                     l2451:	
  1790                           ;incstack = 0
  1791                           ; Regs used in _Adjust_Temp: [wreg+status,2+status,0+pclath+cstack]
  1792                           
  1793                           
  1794                           ;System.c: 105:     if( (Desired_Temp < Actual_Temp_Avg + 1 ) && (Desired_Temp > Actual_
      +                          Temp_Avg - 1 ) )
  1795  04E6  1283               	bcf	3,5	;RP0=0, select bank0
  1796  04E7  1303               	bcf	3,6	;RP1=0, select bank0
  1797  04E8  0860               	movf	_Actual_Temp_Avg,w
  1798  04E9  3E01               	addlw	1
  1799  04EA  00A1               	movwf	??_Adjust_Temp
  1800  04EB  0861               	movf	_Actual_Temp_Avg+1,w
  1801  04EC  1803               	skipnc
  1802  04ED  3E01               	addlw	1
  1803  04EE  3E00               	addlw	0
  1804  04EF  00A2               	movwf	??_Adjust_Temp+1
  1805  04F0  0822               	movf	??_Adjust_Temp+1,w
  1806  04F1  0265               	subwf	_Desired_Temp+1,w
  1807  04F2  1D03               	skipz
  1808  04F3  2CF6               	goto	u2365
  1809  04F4  0821               	movf	??_Adjust_Temp,w
  1810  04F5  0264               	subwf	_Desired_Temp,w
  1811  04F6                     u2365:	
  1812  04F6  1803               	skipnc
  1813  04F7  2CF9               	goto	u2361
  1814  04F8  2CFA               	goto	u2360
  1815  04F9                     u2361:	
  1816  04F9  2D1C               	goto	l2457
  1817  04FA                     u2360:	
  1818  04FA                     l2453:	
  1819  04FA  0860               	movf	_Actual_Temp_Avg,w
  1820  04FB  3EFF               	addlw	255
  1821  04FC  00A1               	movwf	??_Adjust_Temp
  1822  04FD  0861               	movf	_Actual_Temp_Avg+1,w
  1823  04FE  1803               	skipnc
  1824  04FF  3E01               	addlw	1
  1825  0500  3EFF               	addlw	255
  1826  0501  00A2               	movwf	??_Adjust_Temp+1
  1827  0502  0865               	movf	_Desired_Temp+1,w
  1828  0503  0222               	subwf	??_Adjust_Temp+1,w
  1829  0504  1D03               	skipz
  1830  0505  2D08               	goto	u2375
  1831  0506  0864               	movf	_Desired_Temp,w
  1832  0507  0221               	subwf	??_Adjust_Temp,w
  1833  0508                     u2375:	
  1834  0508  1803               	skipnc
  1835  0509  2D0B               	goto	u2371
  1836  050A  2D0C               	goto	u2370
  1837  050B                     u2371:	
  1838  050B  2D1C               	goto	l2457
  1839  050C                     u2370:	
  1840  050C                     l2455:	
  1841                           
  1842                           ;System.c: 106:     {;System.c: 107:          Fan_Stop();
  1843  050C  120A  158A  2406  120A  118A  	fcall	_Fan_Stop
  1844                           
  1845                           ;System.c: 108:          Heater_Stop() ;
  1846  0511  120A  158A  240A  120A  118A  	fcall	_Heater_Stop
  1847                           
  1848                           ;System.c: 109:          Heating_LED_Off();
  1849  0516  120A  158A  240E  120A  118A  	fcall	_Heating_LED_Off
  1850                           
  1851                           ;System.c: 110:     }
  1852  051B  2D66               	goto	l334
  1853  051C                     l2457:	
  1854  051C  0860               	movf	_Actual_Temp_Avg,w
  1855  051D  3E01               	addlw	1
  1856  051E  00A1               	movwf	??_Adjust_Temp
  1857  051F  0861               	movf	_Actual_Temp_Avg+1,w
  1858  0520  1803               	skipnc
  1859  0521  3E01               	addlw	1
  1860  0522  3E00               	addlw	0
  1861  0523  00A2               	movwf	??_Adjust_Temp+1
  1862  0524  0865               	movf	_Desired_Temp+1,w
  1863  0525  0222               	subwf	??_Adjust_Temp+1,w
  1864  0526  1D03               	skipz
  1865  0527  2D2A               	goto	u2385
  1866  0528  0864               	movf	_Desired_Temp,w
  1867  0529  0221               	subwf	??_Adjust_Temp,w
  1868  052A                     u2385:	
  1869  052A  1803               	skipnc
  1870  052B  2D2D               	goto	u2381
  1871  052C  2D2E               	goto	u2380
  1872  052D                     u2381:	
  1873  052D  2D45               	goto	l2465
  1874  052E                     u2380:	
  1875  052E                     l2459:	
  1876                           
  1877                           ;System.c: 112:         Fan_Stop();
  1878  052E  120A  158A  2406  120A  118A  	fcall	_Fan_Stop
  1879                           
  1880                           ;System.c: 113:         Heater_Start();
  1881  0533  120A  158A  2416  120A  118A  	fcall	_Heater_Start
  1882  0538                     l2461:	
  1883                           
  1884                           ;System.c: 114:         if(Toggle_indication == 0 ){
  1885  0538  1283               	bcf	3,5	;RP0=0, select bank0
  1886  0539  1303               	bcf	3,6	;RP1=0, select bank0
  1887  053A  0866               	movf	_Toggle_indication,w	;volatile
  1888  053B  1D03               	btfss	3,2
  1889  053C  2D3E               	goto	u2391
  1890  053D  2D3F               	goto	u2390
  1891  053E                     u2391:	
  1892  053E  2D66               	goto	l334
  1893  053F                     u2390:	
  1894  053F                     l2463:	
  1895                           
  1896                           ;System.c: 115:         Heating_LED_Toggle();
  1897  053F  120A  158A  24A8  120A  118A  	fcall	_Heating_LED_Toggle
  1898  0544  2D66               	goto	l334
  1899  0545                     l2465:	
  1900  0545  0860               	movf	_Actual_Temp_Avg,w
  1901  0546  3EFF               	addlw	255
  1902  0547  00A1               	movwf	??_Adjust_Temp
  1903  0548  0861               	movf	_Actual_Temp_Avg+1,w
  1904  0549  1803               	skipnc
  1905  054A  3E01               	addlw	1
  1906  054B  3EFF               	addlw	255
  1907  054C  00A2               	movwf	??_Adjust_Temp+1
  1908  054D  0822               	movf	??_Adjust_Temp+1,w
  1909  054E  0265               	subwf	_Desired_Temp+1,w
  1910  054F  1D03               	skipz
  1911  0550  2D53               	goto	u2405
  1912  0551  0821               	movf	??_Adjust_Temp,w
  1913  0552  0264               	subwf	_Desired_Temp,w
  1914  0553                     u2405:	
  1915  0553  1803               	skipnc
  1916  0554  2D56               	goto	u2401
  1917  0555  2D57               	goto	u2400
  1918  0556                     u2401:	
  1919  0556  2D66               	goto	l334
  1920  0557                     u2400:	
  1921  0557                     l2467:	
  1922                           
  1923                           ;System.c: 121:          Fan_Start();
  1924  0557  120A  158A  2412  120A  118A  	fcall	_Fan_Start
  1925                           
  1926                           ;System.c: 122:          Heater_Stop() ;
  1927  055C  120A  158A  240A  120A  118A  	fcall	_Heater_Stop
  1928                           
  1929                           ;System.c: 123:          Heating_LED_On();
  1930  0561  120A  158A  241A  120A  118A  	fcall	_Heating_LED_On
  1931  0566                     l334:	
  1932  0566  0008               	return
  1933  0567                     __end_of_Adjust_Temp:	
  1934                           
  1935                           	psect	text3
  1936  0CA8                     __ptext3:	
  1937 ;; *************** function _Heating_LED_Toggle *****************
  1938 ;; Defined at:
  1939 ;;		line 17 in file "Leds.c"
  1940 ;; Parameters:    Size  Location     Type
  1941 ;;		None
  1942 ;; Auto vars:     Size  Location     Type
  1943 ;;		None
  1944 ;; Return value:  Size  Location     Type
  1945 ;;                  1    wreg      void 
  1946 ;; Registers used:
  1947 ;;		wreg, status,2, status,0
  1948 ;; Tracked objects:
  1949 ;;		On entry : 0/0
  1950 ;;		On exit  : 0/0
  1951 ;;		Unchanged: 0/0
  1952 ;; Data sizes:     COMMON   BANK0   BANK1   BANK3   BANK2
  1953 ;;      Params:         0       0       0       0       0
  1954 ;;      Locals:         0       0       0       0       0
  1955 ;;      Temps:          0       1       0       0       0
  1956 ;;      Totals:         0       1       0       0       0
  1957 ;;Total ram usage:        1 bytes
  1958 ;; Hardware stack levels used:    1
  1959 ;; Hardware stack levels required when called:    4
  1960 ;; This function calls:
  1961 ;;		Nothing
  1962 ;; This function is called by:
  1963 ;;		_Adjust_Temp
  1964 ;; This function uses a non-reentrant model
  1965 ;;
  1966                           
  1967                           
  1968                           ;psect for function _Heating_LED_Toggle
  1969  0CA8                     _Heating_LED_Toggle:	
  1970  0CA8                     l2251:	
  1971                           ;incstack = 0
  1972                           ; Regs used in _Heating_LED_Toggle: [wreg+status,2+status,0]
  1973                           
  1974                           
  1975                           ;Leds.c: 19:         PORTBbits.RB7 ^= 1 ;
  1976  0CA8  1283               	bcf	3,5	;RP0=0, select bank0
  1977  0CA9  1303               	bcf	3,6	;RP1=0, select bank0
  1978  0CAA  0D06               	rlf	6,w	;volatile
  1979  0CAB  0D06               	rlf	6,w	;volatile
  1980  0CAC  3901               	andlw	1
  1981  0CAD  00A0               	movwf	??_Heating_LED_Toggle
  1982  0CAE  3001               	movlw	1
  1983  0CAF  06A0               	xorwf	??_Heating_LED_Toggle,f
  1984  0CB0  0CA0               	rrf	??_Heating_LED_Toggle,f
  1985  0CB1  0CA0               	rrf	??_Heating_LED_Toggle,f
  1986  0CB2  0806               	movf	6,w	;volatile
  1987  0CB3  0620               	xorwf	??_Heating_LED_Toggle,w
  1988  0CB4  397F               	andlw	-129
  1989  0CB5  0620               	xorwf	??_Heating_LED_Toggle,w
  1990  0CB6  0086               	movwf	6	;volatile
  1991  0CB7                     l228:	
  1992  0CB7  0008               	return
  1993  0CB8                     __end_of_Heating_LED_Toggle:	
  1994                           
  1995                           	psect	text4
  1996  0C1A                     __ptext4:	
  1997 ;; *************** function _Heating_LED_On *****************
  1998 ;; Defined at:
  1999 ;;		line 8 in file "Leds.c"
  2000 ;; Parameters:    Size  Location     Type
  2001 ;;		None
  2002 ;; Auto vars:     Size  Location     Type
  2003 ;;		None
  2004 ;; Return value:  Size  Location     Type
  2005 ;;                  1    wreg      void 
  2006 ;; Registers used:
  2007 ;;		None
  2008 ;; Tracked objects:
  2009 ;;		On entry : 0/0
  2010 ;;		On exit  : 0/0
  2011 ;;		Unchanged: 0/0
  2012 ;; Data sizes:     COMMON   BANK0   BANK1   BANK3   BANK2
  2013 ;;      Params:         0       0       0       0       0
  2014 ;;      Locals:         0       0       0       0       0
  2015 ;;      Temps:          0       0       0       0       0
  2016 ;;      Totals:         0       0       0       0       0
  2017 ;;Total ram usage:        0 bytes
  2018 ;; Hardware stack levels used:    1
  2019 ;; Hardware stack levels required when called:    4
  2020 ;; This function calls:
  2021 ;;		Nothing
  2022 ;; This function is called by:
  2023 ;;		_Adjust_Temp
  2024 ;; This function uses a non-reentrant model
  2025 ;;
  2026                           
  2027                           
  2028                           ;psect for function _Heating_LED_On
  2029  0C1A                     _Heating_LED_On:	
  2030  0C1A                     l2247:	
  2031                           ;incstack = 0
  2032                           ; Regs used in _Heating_LED_On: []
  2033                           
  2034                           
  2035                           ;Leds.c: 10:         PORTBbits.RB7 = 1 ;
  2036  0C1A  1283               	bcf	3,5	;RP0=0, select bank0
  2037  0C1B  1303               	bcf	3,6	;RP1=0, select bank0
  2038  0C1C  1786               	bsf	6,7	;volatile
  2039  0C1D                     l222:	
  2040  0C1D  0008               	return
  2041  0C1E                     __end_of_Heating_LED_On:	
  2042                           
  2043                           	psect	text5
  2044  0C16                     __ptext5:	
  2045 ;; *************** function _Heater_Start *****************
  2046 ;; Defined at:
  2047 ;;		line 9 in file "Heater.c"
  2048 ;; Parameters:    Size  Location     Type
  2049 ;;		None
  2050 ;; Auto vars:     Size  Location     Type
  2051 ;;		None
  2052 ;; Return value:  Size  Location     Type
  2053 ;;                  1    wreg      void 
  2054 ;; Registers used:
  2055 ;;		None
  2056 ;; Tracked objects:
  2057 ;;		On entry : 0/0
  2058 ;;		On exit  : 0/0
  2059 ;;		Unchanged: 0/0
  2060 ;; Data sizes:     COMMON   BANK0   BANK1   BANK3   BANK2
  2061 ;;      Params:         0       0       0       0       0
  2062 ;;      Locals:         0       0       0       0       0
  2063 ;;      Temps:          0       0       0       0       0
  2064 ;;      Totals:         0       0       0       0       0
  2065 ;;Total ram usage:        0 bytes
  2066 ;; Hardware stack levels used:    1
  2067 ;; Hardware stack levels required when called:    4
  2068 ;; This function calls:
  2069 ;;		Nothing
  2070 ;; This function is called by:
  2071 ;;		_Adjust_Temp
  2072 ;; This function uses a non-reentrant model
  2073 ;;
  2074                           
  2075                           
  2076                           ;psect for function _Heater_Start
  2077  0C16                     _Heater_Start:	
  2078  0C16                     l2243:	
  2079                           ;incstack = 0
  2080                           ; Regs used in _Heater_Start: []
  2081                           
  2082                           
  2083                           ;Heater.c: 10:         PORTCbits.RC5 = 1 ;
  2084  0C16  1283               	bcf	3,5	;RP0=0, select bank0
  2085  0C17  1303               	bcf	3,6	;RP1=0, select bank0
  2086  0C18  1687               	bsf	7,5	;volatile
  2087  0C19                     l161:	
  2088  0C19  0008               	return
  2089  0C1A                     __end_of_Heater_Start:	
  2090                           
  2091                           	psect	text6
  2092  0C12                     __ptext6:	
  2093 ;; *************** function _Fan_Start *****************
  2094 ;; Defined at:
  2095 ;;		line 7 in file "Fan.c"
  2096 ;; Parameters:    Size  Location     Type
  2097 ;;		None
  2098 ;; Auto vars:     Size  Location     Type
  2099 ;;		None
  2100 ;; Return value:  Size  Location     Type
  2101 ;;                  1    wreg      void 
  2102 ;; Registers used:
  2103 ;;		None
  2104 ;; Tracked objects:
  2105 ;;		On entry : 0/0
  2106 ;;		On exit  : 0/0
  2107 ;;		Unchanged: 0/0
  2108 ;; Data sizes:     COMMON   BANK0   BANK1   BANK3   BANK2
  2109 ;;      Params:         0       0       0       0       0
  2110 ;;      Locals:         0       0       0       0       0
  2111 ;;      Temps:          0       0       0       0       0
  2112 ;;      Totals:         0       0       0       0       0
  2113 ;;Total ram usage:        0 bytes
  2114 ;; Hardware stack levels used:    1
  2115 ;; Hardware stack levels required when called:    4
  2116 ;; This function calls:
  2117 ;;		Nothing
  2118 ;; This function is called by:
  2119 ;;		_Adjust_Temp
  2120 ;; This function uses a non-reentrant model
  2121 ;;
  2122                           
  2123                           
  2124                           ;psect for function _Fan_Start
  2125  0C12                     _Fan_Start:	
  2126  0C12                     l2239:	
  2127                           ;incstack = 0
  2128                           ; Regs used in _Fan_Start: []
  2129                           
  2130                           
  2131                           ;Fan.c: 8:         PORTCbits.RC2 = 1 ;
  2132  0C12  1283               	bcf	3,5	;RP0=0, select bank0
  2133  0C13  1303               	bcf	3,6	;RP1=0, select bank0
  2134  0C14  1507               	bsf	7,2	;volatile
  2135  0C15                     l148:	
  2136  0C15  0008               	return
  2137  0C16                     __end_of_Fan_Start:	
  2138                           
  2139                           	psect	text7
  2140  0E3A                     __ptext7:	
  2141 ;; *************** function _Add_New_Temp *****************
  2142 ;; Defined at:
  2143 ;;		line 137 in file "System.c"
  2144 ;; Parameters:    Size  Location     Type
  2145 ;;  Array           1    wreg     PTR unsigned int 
  2146 ;;		 -> Temp_Measurments(20), 
  2147 ;;  Newest_Value    2    0[BANK0 ] unsigned int 
  2148 ;; Auto vars:     Size  Location     Type
  2149 ;;  Array           1    8[BANK0 ] PTR unsigned int 
  2150 ;;		 -> Temp_Measurments(20), 
  2151 ;;  element         1    9[BANK0 ] unsigned char 
  2152 ;; Return value:  Size  Location     Type
  2153 ;;                  1    wreg      void 
  2154 ;; Registers used:
  2155 ;;		wreg, fsr0l, fsr0h, status,2, status,0
  2156 ;; Tracked objects:
  2157 ;;		On entry : 0/0
  2158 ;;		On exit  : 0/0
  2159 ;;		Unchanged: 0/0
  2160 ;; Data sizes:     COMMON   BANK0   BANK1   BANK3   BANK2
  2161 ;;      Params:         0       2       0       0       0
  2162 ;;      Locals:         0       2       0       0       0
  2163 ;;      Temps:          0       6       0       0       0
  2164 ;;      Totals:         0      10       0       0       0
  2165 ;;Total ram usage:       10 bytes
  2166 ;; Hardware stack levels used:    1
  2167 ;; Hardware stack levels required when called:    4
  2168 ;; This function calls:
  2169 ;;		Nothing
  2170 ;; This function is called by:
  2171 ;;		_Task_ON_State
  2172 ;; This function uses a non-reentrant model
  2173 ;;
  2174                           
  2175                           
  2176                           ;psect for function _Add_New_Temp
  2177  0E3A                     _Add_New_Temp:	
  2178                           
  2179                           ;incstack = 0
  2180                           ; Regs used in _Add_New_Temp: [wreg-fsr0h+status,2+status,0]
  2181                           ;Add_New_Temp@Array stored from wreg
  2182  0E3A  1283               	bcf	3,5	;RP0=0, select bank0
  2183  0E3B  1303               	bcf	3,6	;RP1=0, select bank0
  2184  0E3C  00A8               	movwf	Add_New_Temp@Array
  2185  0E3D                     l2423:	
  2186                           
  2187                           ;System.c: 140:     for(uint8_t element = 10 -1 ; element > 0 ; element -- ){
  2188  0E3D  3009               	movlw	9
  2189  0E3E  00A2               	movwf	??_Add_New_Temp
  2190  0E3F  0822               	movf	??_Add_New_Temp,w
  2191  0E40  00A9               	movwf	Add_New_Temp@element
  2192  0E41                     l2429:	
  2193                           
  2194                           ;System.c: 141:         Array[element] = Array[element -1];
  2195  0E41  0829               	movf	Add_New_Temp@element,w
  2196  0E42  00A2               	movwf	??_Add_New_Temp
  2197  0E43  0722               	addwf	??_Add_New_Temp,w
  2198  0E44  0728               	addwf	Add_New_Temp@Array,w
  2199  0E45  00A3               	movwf	??_Add_New_Temp+1
  2200  0E46  0823               	movf	??_Add_New_Temp+1,w
  2201  0E47  3EFE               	addlw	-2
  2202  0E48  0084               	movwf	4
  2203  0E49  1383               	bcf	3,7	;select IRP bank0
  2204  0E4A  0800               	movf	0,w
  2205  0E4B  00A4               	movwf	??_Add_New_Temp+2
  2206  0E4C  0A84               	incf	4,f
  2207  0E4D  0800               	movf	0,w
  2208  0E4E  00A5               	movwf	??_Add_New_Temp+3
  2209  0E4F  0829               	movf	Add_New_Temp@element,w
  2210  0E50  00A6               	movwf	??_Add_New_Temp+4
  2211  0E51  0726               	addwf	??_Add_New_Temp+4,w
  2212  0E52  0728               	addwf	Add_New_Temp@Array,w
  2213  0E53  00A7               	movwf	??_Add_New_Temp+5
  2214  0E54  0827               	movf	??_Add_New_Temp+5,w
  2215  0E55  0084               	movwf	4
  2216  0E56  0824               	movf	??_Add_New_Temp+2,w
  2217  0E57  0080               	movwf	0
  2218  0E58  0A84               	incf	4,f
  2219  0E59  0825               	movf	??_Add_New_Temp+3,w
  2220  0E5A  0080               	movwf	0
  2221  0E5B                     l2431:	
  2222                           
  2223                           ;System.c: 142:     }
  2224  0E5B  3001               	movlw	1
  2225  0E5C  02A9               	subwf	Add_New_Temp@element,f
  2226  0E5D                     l2433:	
  2227  0E5D  0829               	movf	Add_New_Temp@element,w
  2228  0E5E  1D03               	btfss	3,2
  2229  0E5F  2E61               	goto	u2351
  2230  0E60  2E62               	goto	u2350
  2231  0E61                     u2351:	
  2232  0E61  2E41               	goto	l2429
  2233  0E62                     u2350:	
  2234  0E62                     l2435:	
  2235                           
  2236                           ;System.c: 143:     Array[0] = Newest_Value ;
  2237  0E62  0828               	movf	Add_New_Temp@Array,w
  2238  0E63  0084               	movwf	4
  2239  0E64  0820               	movf	Add_New_Temp@Newest_Value,w
  2240  0E65  0080               	movwf	0
  2241  0E66  0A84               	incf	4,f
  2242  0E67  0821               	movf	Add_New_Temp@Newest_Value+1,w
  2243  0E68  0080               	movwf	0
  2244  0E69                     l339:	
  2245  0E69  0008               	return
  2246  0E6A                     __end_of_Add_New_Temp:	
  2247                           
  2248                           	psect	text8
  2249  0CB8                     __ptext8:	
  2250 ;; *************** function _Task_OFF_State *****************
  2251 ;; Defined at:
  2252 ;;		line 8 in file "System.c"
  2253 ;; Parameters:    Size  Location     Type
  2254 ;;		None
  2255 ;; Auto vars:     Size  Location     Type
  2256 ;;		None
  2257 ;; Return value:  Size  Location     Type
  2258 ;;                  1    wreg      void 
  2259 ;; Registers used:
  2260 ;;		status,2, status,0, pclath, cstack
  2261 ;; Tracked objects:
  2262 ;;		On entry : 0/0
  2263 ;;		On exit  : 0/0
  2264 ;;		Unchanged: 0/0
  2265 ;; Data sizes:     COMMON   BANK0   BANK1   BANK3   BANK2
  2266 ;;      Params:         0       0       0       0       0
  2267 ;;      Locals:         0       0       0       0       0
  2268 ;;      Temps:          0       0       0       0       0
  2269 ;;      Totals:         0       0       0       0       0
  2270 ;;Total ram usage:        0 bytes
  2271 ;; Hardware stack levels used:    1
  2272 ;; Hardware stack levels required when called:    5
  2273 ;; This function calls:
  2274 ;;		_Fan_Stop
  2275 ;;		_Heater_Stop
  2276 ;;		_Sev_Seg_Disable
  2277 ;; This function is called by:
  2278 ;;		_main
  2279 ;; This function uses a non-reentrant model
  2280 ;;
  2281                           
  2282                           
  2283                           ;psect for function _Task_OFF_State
  2284  0CB8                     _Task_OFF_State:	
  2285  0CB8                     l2527:	
  2286                           ;incstack = 0
  2287                           ; Regs used in _Task_OFF_State: [status,2+status,0+pclath+cstack]
  2288                           
  2289                           
  2290                           ;System.c: 10:                    Sev_Seg_Disable() ;
  2291  0CB8  120A  158A  241E  120A  158A  	fcall	_Sev_Seg_Disable
  2292                           
  2293                           ;System.c: 11:                    Fan_Stop();
  2294  0CBD  120A  158A  2406  120A  158A  	fcall	_Fan_Stop
  2295                           
  2296                           ;System.c: 12:                    Heater_Stop();
  2297  0CC2  120A  158A  240A  120A  158A  	fcall	_Heater_Stop
  2298  0CC7  0063               	sleep	;# 
  2299  0CC8                     l307:	
  2300  0CC8  0008               	return
  2301  0CC9                     __end_of_Task_OFF_State:	
  2302                           
  2303                           	psect	text9
  2304  0657                     __ptext9:	
  2305 ;; *************** function _Task_ChangeTemp_State *****************
  2306 ;; Defined at:
  2307 ;;		line 42 in file "System.c"
  2308 ;; Parameters:    Size  Location     Type
  2309 ;;		None
  2310 ;; Auto vars:     Size  Location     Type
  2311 ;;		None
  2312 ;; Return value:  Size  Location     Type
  2313 ;;                  1    wreg      void 
  2314 ;; Registers used:
  2315 ;;		wreg, fsr0l, fsr0h, status,2, status,0, pclath, cstack
  2316 ;; Tracked objects:
  2317 ;;		On entry : 0/0
  2318 ;;		On exit  : 0/0
  2319 ;;		Unchanged: 0/0
  2320 ;; Data sizes:     COMMON   BANK0   BANK1   BANK3   BANK2
  2321 ;;      Params:         0       0       0       0       0
  2322 ;;      Locals:         0       0       0       0       0
  2323 ;;      Temps:          0       1       0       0       0
  2324 ;;      Totals:         0       1       0       0       0
  2325 ;;Total ram usage:        1 bytes
  2326 ;; Hardware stack levels used:    1
  2327 ;; Hardware stack levels required when called:    7
  2328 ;; This function calls:
  2329 ;;		_Down_Pressed
  2330 ;;		_EEPROM_Write
  2331 ;;		_Fan_Stop
  2332 ;;		_Heater_Stop
  2333 ;;		_Heating_LED_Off
  2334 ;;		_Sev_Seg_Disable
  2335 ;;		_Sev_Seg_Write_99
  2336 ;;		_Up_Pressed
  2337 ;; This function is called by:
  2338 ;;		_main
  2339 ;; This function uses a non-reentrant model
  2340 ;;
  2341                           
  2342                           
  2343                           ;psect for function _Task_ChangeTemp_State
  2344  0657                     _Task_ChangeTemp_State:	
  2345  0657                     l2553:	
  2346                           ;incstack = 0
  2347                           ; Regs used in _Task_ChangeTemp_State: [wreg-fsr0h+status,2+status,0+pclath+cstack]
  2348                           
  2349                           
  2350                           ;System.c: 44:                       Fan_Stop();
  2351  0657  120A  158A  2406  120A  118A  	fcall	_Fan_Stop
  2352                           
  2353                           ;System.c: 45:                       Heater_Stop();
  2354  065C  120A  158A  240A  120A  118A  	fcall	_Heater_Stop
  2355                           
  2356                           ;System.c: 46:                       Heating_LED_Off();
  2357  0661  120A  158A  240E  120A  118A  	fcall	_Heating_LED_Off
  2358  0666                     l2555:	
  2359                           
  2360                           ;System.c: 49:                       if(Toggle_indication == 0 ){
  2361  0666  1283               	bcf	3,5	;RP0=0, select bank0
  2362  0667  1303               	bcf	3,6	;RP1=0, select bank0
  2363  0668  0866               	movf	_Toggle_indication,w	;volatile
  2364  0669  1D03               	btfss	3,2
  2365  066A  2E6C               	goto	u2451
  2366  066B  2E6D               	goto	u2450
  2367  066C                     u2451:	
  2368  066C  2E77               	goto	l2559
  2369  066D                     u2450:	
  2370  066D                     l2557:	
  2371                           
  2372                           ;System.c: 50:                           Sev_Seg_Write_99(Desired_Temp);
  2373  066D  0865               	movf	_Desired_Temp+1,w
  2374  066E  00A9               	movwf	Sev_Seg_Write_99@Num+1
  2375  066F  0864               	movf	_Desired_Temp,w
  2376  0670  00A8               	movwf	Sev_Seg_Write_99@Num
  2377  0671  120A  118A  26C1  120A  118A  	fcall	_Sev_Seg_Write_99
  2378                           
  2379                           ;System.c: 51:                       }else{
  2380  0676  2E7C               	goto	l2561
  2381  0677                     l2559:	
  2382                           
  2383                           ;System.c: 52:                           Sev_Seg_Disable();
  2384  0677  120A  158A  241E  120A  118A  	fcall	_Sev_Seg_Disable
  2385  067C                     l2561:	
  2386                           
  2387                           ;System.c: 55:                       if( ( Up_Pressed() == 1 ) && (Desired_Temp < 75) )
  2388  067C  120A  158A  2527  120A  118A  	fcall	_Up_Pressed
  2389  0681  3A01               	xorlw	1
  2390  0682  1D03               	skipz
  2391  0683  2E85               	goto	u2461
  2392  0684  2E86               	goto	u2460
  2393  0685                     u2461:	
  2394  0685  2E98               	goto	l2569
  2395  0686                     u2460:	
  2396  0686                     l2563:	
  2397  0686  3000               	movlw	0
  2398  0687  1283               	bcf	3,5	;RP0=0, select bank0
  2399  0688  1303               	bcf	3,6	;RP1=0, select bank0
  2400  0689  0265               	subwf	_Desired_Temp+1,w
  2401  068A  304B               	movlw	75
  2402  068B  1903               	skipnz
  2403  068C  0264               	subwf	_Desired_Temp,w
  2404  068D  1803               	skipnc
  2405  068E  2E90               	goto	u2471
  2406  068F  2E91               	goto	u2470
  2407  0690                     u2471:	
  2408  0690  2E98               	goto	l2569
  2409  0691                     u2470:	
  2410  0691                     l2565:	
  2411                           
  2412                           ;System.c: 56:                       {;System.c: 57:                           SettingMo
      +                          de_counter = 0 ;
  2413  0691  01F9               	clrf	_SettingMode_counter	;volatile
  2414  0692                     l2567:	
  2415                           
  2416                           ;System.c: 58:                           Desired_Temp +=5 ;
  2417  0692  3005               	movlw	5
  2418  0693  07E4               	addwf	_Desired_Temp,f
  2419  0694  1803               	skipnc
  2420  0695  0AE5               	incf	_Desired_Temp+1,f
  2421  0696  3000               	movlw	0
  2422  0697  07E5               	addwf	_Desired_Temp+1,f
  2423  0698                     l2569:	
  2424                           
  2425                           ;System.c: 60:                       if ( (Down_Pressed() == 1) && (Desired_Temp > 35) )
  2426  0698  120A  158A  24F1  120A  118A  	fcall	_Down_Pressed
  2427  069D  3A01               	xorlw	1
  2428  069E  1D03               	skipz
  2429  069F  2EA1               	goto	u2481
  2430  06A0  2EA2               	goto	u2480
  2431  06A1                     u2481:	
  2432  06A1  2EB4               	goto	l2577
  2433  06A2                     u2480:	
  2434  06A2                     l2571:	
  2435  06A2  3000               	movlw	0
  2436  06A3  1283               	bcf	3,5	;RP0=0, select bank0
  2437  06A4  1303               	bcf	3,6	;RP1=0, select bank0
  2438  06A5  0265               	subwf	_Desired_Temp+1,w
  2439  06A6  3024               	movlw	36
  2440  06A7  1903               	skipnz
  2441  06A8  0264               	subwf	_Desired_Temp,w
  2442  06A9  1C03               	skipc
  2443  06AA  2EAC               	goto	u2491
  2444  06AB  2EAD               	goto	u2490
  2445  06AC                     u2491:	
  2446  06AC  2EB4               	goto	l2577
  2447  06AD                     u2490:	
  2448  06AD                     l2573:	
  2449                           
  2450                           ;System.c: 61:                       {;System.c: 62:                           SettingMo
      +                          de_counter = 0 ;
  2451  06AD  01F9               	clrf	_SettingMode_counter	;volatile
  2452  06AE                     l2575:	
  2453                           
  2454                           ;System.c: 63:                          Desired_Temp -=5 ;
  2455  06AE  3005               	movlw	5
  2456  06AF  02E4               	subwf	_Desired_Temp,f
  2457  06B0  3000               	movlw	0
  2458  06B1  1C03               	skipc
  2459  06B2  03E5               	decf	_Desired_Temp+1,f
  2460  06B3  02E5               	subwf	_Desired_Temp+1,f
  2461  06B4                     l2577:	
  2462                           ;System.c: 64:                       }
  2463                           
  2464                           
  2465                           ;System.c: 70:                       EEPROM_Write(0x00,Desired_Temp);
  2466  06B4  1283               	bcf	3,5	;RP0=0, select bank0
  2467  06B5  1303               	bcf	3,6	;RP1=0, select bank0
  2468  06B6  0864               	movf	_Desired_Temp,w
  2469  06B7  00AE               	movwf	??_Task_ChangeTemp_State
  2470  06B8  082E               	movf	??_Task_ChangeTemp_State,w
  2471  06B9  00A1               	movwf	EEPROM_Write@Value
  2472  06BA  3000               	movlw	0
  2473  06BB  120A  118A  27DA  120A  118A  	fcall	_EEPROM_Write
  2474  06C0                     l322:	
  2475  06C0  0008               	return
  2476  06C1                     __end_of_Task_ChangeTemp_State:	
  2477                           
  2478                           	psect	text10
  2479  0D27                     __ptext10:	
  2480 ;; *************** function _Up_Pressed *****************
  2481 ;; Defined at:
  2482 ;;		line 24 in file "Buttons.c"
  2483 ;; Parameters:    Size  Location     Type
  2484 ;;		None
  2485 ;; Auto vars:     Size  Location     Type
  2486 ;;		None
  2487 ;; Return value:  Size  Location     Type
  2488 ;;                  1    wreg      unsigned char 
  2489 ;; Registers used:
  2490 ;;		wreg
  2491 ;; Tracked objects:
  2492 ;;		On entry : 0/0
  2493 ;;		On exit  : 0/0
  2494 ;;		Unchanged: 0/0
  2495 ;; Data sizes:     COMMON   BANK0   BANK1   BANK3   BANK2
  2496 ;;      Params:         0       0       0       0       0
  2497 ;;      Locals:         0       0       0       0       0
  2498 ;;      Temps:          0       2       0       0       0
  2499 ;;      Totals:         0       2       0       0       0
  2500 ;;Total ram usage:        2 bytes
  2501 ;; Hardware stack levels used:    1
  2502 ;; Hardware stack levels required when called:    4
  2503 ;; This function calls:
  2504 ;;		Nothing
  2505 ;; This function is called by:
  2506 ;;		_Task_ON_State
  2507 ;;		_Task_ChangeTemp_State
  2508 ;; This function uses a non-reentrant model
  2509 ;;
  2510                           
  2511                           
  2512                           ;psect for function _Up_Pressed
  2513  0D27                     _Up_Pressed:	
  2514  0D27                     l2355:	
  2515                           ;incstack = 0
  2516                           ; Regs used in _Up_Pressed: [wreg]
  2517                           
  2518                           
  2519                           ;Buttons.c: 25:       if(RB2 == 0 ){
  2520  0D27  1283               	bcf	3,5	;RP0=0, select bank0
  2521  0D28  1303               	bcf	3,6	;RP1=0, select bank0
  2522  0D29  1906               	btfsc	6,2	;volatile
  2523  0D2A  2D2C               	goto	u2291
  2524  0D2B  2D2D               	goto	u2290
  2525  0D2C                     u2291:	
  2526  0D2C  2D40               	goto	l2367
  2527  0D2D                     u2290:	
  2528  0D2D                     l2357:	
  2529                           
  2530                           ;Buttons.c: 26:           _delay((unsigned long)((75)*(8000000/4000.0)));
  2531  0D2D  30C3               	movlw	195
  2532  0D2E  1283               	bcf	3,5	;RP0=0, select bank0
  2533  0D2F  1303               	bcf	3,6	;RP1=0, select bank0
  2534  0D30  00A1               	movwf	??_Up_Pressed+1
  2535  0D31  30CC               	movlw	204
  2536  0D32  00A0               	movwf	??_Up_Pressed
  2537  0D33                     u2617:	
  2538  0D33  0BA0               	decfsz	??_Up_Pressed,f
  2539  0D34  2D33               	goto	u2617
  2540  0D35  0BA1               	decfsz	??_Up_Pressed+1,f
  2541  0D36  2D33               	goto	u2617
  2542  0D37  0000               	nop
  2543  0D38                     l2359:	
  2544                           
  2545                           ;Buttons.c: 28:           if(RB2 == 0 ){
  2546  0D38  1283               	bcf	3,5	;RP0=0, select bank0
  2547  0D39  1303               	bcf	3,6	;RP1=0, select bank0
  2548  0D3A  1906               	btfsc	6,2	;volatile
  2549  0D3B  2D3D               	goto	u2301
  2550  0D3C  2D3E               	goto	u2300
  2551  0D3D                     u2301:	
  2552  0D3D  2D40               	goto	l2367
  2553  0D3E                     u2300:	
  2554  0D3E                     l2361:	
  2555                           
  2556                           ;Buttons.c: 29:               return 1 ;
  2557  0D3E  3001               	movlw	1
  2558  0D3F  2D41               	goto	l29
  2559  0D40                     l2367:	
  2560                           
  2561                           ;Buttons.c: 32:               return 0 ;
  2562  0D40  3000               	movlw	0
  2563  0D41                     l29:	
  2564  0D41  0008               	return
  2565  0D42                     __end_of_Up_Pressed:	
  2566                           
  2567                           	psect	text11
  2568  06C1                     __ptext11:	
  2569 ;; *************** function _Sev_Seg_Write_99 *****************
  2570 ;; Defined at:
  2571 ;;		line 94 in file "display7s.c"
  2572 ;; Parameters:    Size  Location     Type
  2573 ;;  Num             2    8[BANK0 ] unsigned int 
  2574 ;; Auto vars:     Size  Location     Type
  2575 ;;  Tens            1   13[BANK0 ] unsigned char 
  2576 ;;  Units           1   12[BANK0 ] unsigned char 
  2577 ;; Return value:  Size  Location     Type
  2578 ;;                  1    wreg      void 
  2579 ;; Registers used:
  2580 ;;		wreg, fsr0l, fsr0h, status,2, status,0, pclath, cstack
  2581 ;; Tracked objects:
  2582 ;;		On entry : 0/0
  2583 ;;		On exit  : 0/0
  2584 ;;		Unchanged: 0/0
  2585 ;; Data sizes:     COMMON   BANK0   BANK1   BANK3   BANK2
  2586 ;;      Params:         0       2       0       0       0
  2587 ;;      Locals:         0       2       0       0       0
  2588 ;;      Temps:          0       2       0       0       0
  2589 ;;      Totals:         0       6       0       0       0
  2590 ;;Total ram usage:        6 bytes
  2591 ;; Hardware stack levels used:    1
  2592 ;; Hardware stack levels required when called:    5
  2593 ;; This function calls:
  2594 ;;		_Sev_Seg_Enable
  2595 ;;		_Sev_Seg_Write
  2596 ;;		___lwdiv
  2597 ;;		___lwmod
  2598 ;; This function is called by:
  2599 ;;		_Task_ON_State
  2600 ;;		_Task_ChangeTemp_State
  2601 ;; This function uses a non-reentrant model
  2602 ;;
  2603                           
  2604                           
  2605                           ;psect for function _Sev_Seg_Write_99
  2606  06C1                     _Sev_Seg_Write_99:	
  2607  06C1                     l2437:	
  2608                           ;incstack = 0
  2609                           ; Regs used in _Sev_Seg_Write_99: [wreg-fsr0h+status,2+status,0+pclath+cstack]
  2610                           
  2611                           
  2612                           ;display7s.c: 96:     unsigned char Units ,Tens ;;display7s.c: 97:     Units = Num % 10 
      +                          ;
  2613  06C1  300A               	movlw	10
  2614  06C2  1283               	bcf	3,5	;RP0=0, select bank0
  2615  06C3  1303               	bcf	3,6	;RP1=0, select bank0
  2616  06C4  00A0               	movwf	___lwmod@divisor
  2617  06C5  3000               	movlw	0
  2618  06C6  00A1               	movwf	___lwmod@divisor+1
  2619  06C7  0829               	movf	Sev_Seg_Write_99@Num+1,w
  2620  06C8  00A3               	movwf	___lwmod@dividend+1
  2621  06C9  0828               	movf	Sev_Seg_Write_99@Num,w
  2622  06CA  00A2               	movwf	___lwmod@dividend
  2623  06CB  120A  158A  266A  120A  118A  	fcall	___lwmod
  2624  06D0  1283               	bcf	3,5	;RP0=0, select bank0
  2625  06D1  1303               	bcf	3,6	;RP1=0, select bank0
  2626  06D2  0820               	movf	?___lwmod,w
  2627  06D3  00AA               	movwf	??_Sev_Seg_Write_99
  2628  06D4  082A               	movf	??_Sev_Seg_Write_99,w
  2629  06D5  00AC               	movwf	Sev_Seg_Write_99@Units
  2630                           
  2631                           ;display7s.c: 98:     Tens = Num / 10 ;
  2632  06D6  300A               	movlw	10
  2633  06D7  00A0               	movwf	___lwdiv@divisor
  2634  06D8  3000               	movlw	0
  2635  06D9  00A1               	movwf	___lwdiv@divisor+1
  2636  06DA  0829               	movf	Sev_Seg_Write_99@Num+1,w
  2637  06DB  00A3               	movwf	___lwdiv@dividend+1
  2638  06DC  0828               	movf	Sev_Seg_Write_99@Num,w
  2639  06DD  00A2               	movwf	___lwdiv@dividend
  2640  06DE  120A  158A  26E3  120A  118A  	fcall	___lwdiv
  2641  06E3  1283               	bcf	3,5	;RP0=0, select bank0
  2642  06E4  1303               	bcf	3,6	;RP1=0, select bank0
  2643  06E5  0820               	movf	?___lwdiv,w
  2644  06E6  00AA               	movwf	??_Sev_Seg_Write_99
  2645  06E7  082A               	movf	??_Sev_Seg_Write_99,w
  2646  06E8  00AD               	movwf	Sev_Seg_Write_99@Tens
  2647  06E9                     l2439:	
  2648                           
  2649                           ;display7s.c: 100:     Sev_Seg_Enable(2);
  2650  06E9  3002               	movlw	2
  2651  06EA  120A  158A  250C  120A  118A  	fcall	_Sev_Seg_Enable
  2652  06EF                     l2441:	
  2653                           
  2654                           ;display7s.c: 101:     Sev_Seg_Write(Tens);
  2655  06EF  1283               	bcf	3,5	;RP0=0, select bank0
  2656  06F0  1303               	bcf	3,6	;RP1=0, select bank0
  2657  06F1  082D               	movf	Sev_Seg_Write_99@Tens,w
  2658  06F2  00AA               	movwf	??_Sev_Seg_Write_99
  2659  06F3  01AB               	clrf	??_Sev_Seg_Write_99+1
  2660  06F4  082A               	movf	??_Sev_Seg_Write_99,w
  2661  06F5  00A0               	movwf	Sev_Seg_Write@Num
  2662  06F6  082B               	movf	??_Sev_Seg_Write_99+1,w
  2663  06F7  00A1               	movwf	Sev_Seg_Write@Num+1
  2664  06F8  120A  158A  2770  120A  118A  	fcall	_Sev_Seg_Write
  2665  06FD                     l2443:	
  2666                           
  2667                           ;display7s.c: 102:             _delay((unsigned long)((5)*(8000000/4000.0)));
  2668  06FD  300D               	movlw	13
  2669  06FE  1283               	bcf	3,5	;RP0=0, select bank0
  2670  06FF  1303               	bcf	3,6	;RP1=0, select bank0
  2671  0700  00AB               	movwf	??_Sev_Seg_Write_99+1
  2672  0701  30FB               	movlw	251
  2673  0702  00AA               	movwf	??_Sev_Seg_Write_99
  2674  0703                     u2627:	
  2675  0703  0BAA               	decfsz	??_Sev_Seg_Write_99,f
  2676  0704  2F03               	goto	u2627
  2677  0705  0BAB               	decfsz	??_Sev_Seg_Write_99+1,f
  2678  0706  2F03               	goto	u2627
  2679  0707                     l2445:	
  2680                           
  2681                           ;display7s.c: 103:     Sev_Seg_Enable(1);
  2682  0707  3001               	movlw	1
  2683  0708  120A  158A  250C  120A  118A  	fcall	_Sev_Seg_Enable
  2684  070D                     l2447:	
  2685                           
  2686                           ;display7s.c: 104:     Sev_Seg_Write(Units);
  2687  070D  1283               	bcf	3,5	;RP0=0, select bank0
  2688  070E  1303               	bcf	3,6	;RP1=0, select bank0
  2689  070F  082C               	movf	Sev_Seg_Write_99@Units,w
  2690  0710  00AA               	movwf	??_Sev_Seg_Write_99
  2691  0711  01AB               	clrf	??_Sev_Seg_Write_99+1
  2692  0712  082A               	movf	??_Sev_Seg_Write_99,w
  2693  0713  00A0               	movwf	Sev_Seg_Write@Num
  2694  0714  082B               	movf	??_Sev_Seg_Write_99+1,w
  2695  0715  00A1               	movwf	Sev_Seg_Write@Num+1
  2696  0716  120A  158A  2770  120A  118A  	fcall	_Sev_Seg_Write
  2697  071B                     l2449:	
  2698                           
  2699                           ;display7s.c: 105:             _delay((unsigned long)((5)*(8000000/4000.0)));
  2700  071B  300D               	movlw	13
  2701  071C  1283               	bcf	3,5	;RP0=0, select bank0
  2702  071D  1303               	bcf	3,6	;RP1=0, select bank0
  2703  071E  00AB               	movwf	??_Sev_Seg_Write_99+1
  2704  071F  30FB               	movlw	251
  2705  0720  00AA               	movwf	??_Sev_Seg_Write_99
  2706  0721                     u2637:	
  2707  0721  0BAA               	decfsz	??_Sev_Seg_Write_99,f
  2708  0722  2F21               	goto	u2637
  2709  0723  0BAB               	decfsz	??_Sev_Seg_Write_99+1,f
  2710  0724  2F21               	goto	u2637
  2711  0725                     l475:	
  2712  0725  0008               	return
  2713  0726                     __end_of_Sev_Seg_Write_99:	
  2714                           
  2715                           	psect	text12
  2716  0E6A                     __ptext12:	
  2717 ;; *************** function ___lwmod *****************
  2718 ;; Defined at:
  2719 ;;		line 5 in file "C:\Program Files (x86)\Microchip\xc8\v2.10\pic\sources\c90\common\lwmod.c"
  2720 ;; Parameters:    Size  Location     Type
  2721 ;;  divisor         2    0[BANK0 ] unsigned int 
  2722 ;;  dividend        2    2[BANK0 ] unsigned int 
  2723 ;; Auto vars:     Size  Location     Type
  2724 ;;  counter         1    5[BANK0 ] unsigned char 
  2725 ;; Return value:  Size  Location     Type
  2726 ;;                  2    0[BANK0 ] unsigned int 
  2727 ;; Registers used:
  2728 ;;		wreg, status,2, status,0
  2729 ;; Tracked objects:
  2730 ;;		On entry : 0/0
  2731 ;;		On exit  : 0/0
  2732 ;;		Unchanged: 0/0
  2733 ;; Data sizes:     COMMON   BANK0   BANK1   BANK3   BANK2
  2734 ;;      Params:         0       4       0       0       0
  2735 ;;      Locals:         0       1       0       0       0
  2736 ;;      Temps:          0       1       0       0       0
  2737 ;;      Totals:         0       6       0       0       0
  2738 ;;Total ram usage:        6 bytes
  2739 ;; Hardware stack levels used:    1
  2740 ;; Hardware stack levels required when called:    4
  2741 ;; This function calls:
  2742 ;;		Nothing
  2743 ;; This function is called by:
  2744 ;;		_Sev_Seg_Write_99
  2745 ;; This function uses a non-reentrant model
  2746 ;;
  2747                           
  2748                           
  2749                           ;psect for function ___lwmod
  2750  0E6A                     ___lwmod:	
  2751  0E6A                     l2323:	
  2752                           ;incstack = 0
  2753                           ; Regs used in ___lwmod: [wreg+status,2+status,0]
  2754                           
  2755  0E6A  1283               	bcf	3,5	;RP0=0, select bank0
  2756  0E6B  1303               	bcf	3,6	;RP1=0, select bank0
  2757  0E6C  0820               	movf	___lwmod@divisor,w
  2758  0E6D  0421               	iorwf	___lwmod@divisor+1,w
  2759  0E6E  1903               	btfsc	3,2
  2760  0E6F  2E71               	goto	u2211
  2761  0E70  2E72               	goto	u2210
  2762  0E71                     u2211:	
  2763  0E71  2EA1               	goto	l2341
  2764  0E72                     u2210:	
  2765  0E72                     l2325:	
  2766  0E72  01A5               	clrf	___lwmod@counter
  2767  0E73  0AA5               	incf	___lwmod@counter,f
  2768  0E74  2E80               	goto	l2331
  2769  0E75                     l2327:	
  2770  0E75  3001               	movlw	1
  2771  0E76                     u2225:	
  2772  0E76  1003               	clrc
  2773  0E77  0DA0               	rlf	___lwmod@divisor,f
  2774  0E78  0DA1               	rlf	___lwmod@divisor+1,f
  2775  0E79  3EFF               	addlw	-1
  2776  0E7A  1D03               	skipz
  2777  0E7B  2E76               	goto	u2225
  2778  0E7C                     l2329:	
  2779  0E7C  3001               	movlw	1
  2780  0E7D  00A4               	movwf	??___lwmod
  2781  0E7E  0824               	movf	??___lwmod,w
  2782  0E7F  07A5               	addwf	___lwmod@counter,f
  2783  0E80                     l2331:	
  2784  0E80  1FA1               	btfss	___lwmod@divisor+1,7
  2785  0E81  2E83               	goto	u2231
  2786  0E82  2E84               	goto	u2230
  2787  0E83                     u2231:	
  2788  0E83  2E75               	goto	l2327
  2789  0E84                     u2230:	
  2790  0E84                     l2333:	
  2791  0E84  0821               	movf	___lwmod@divisor+1,w
  2792  0E85  0223               	subwf	___lwmod@dividend+1,w
  2793  0E86  1D03               	skipz
  2794  0E87  2E8A               	goto	u2245
  2795  0E88  0820               	movf	___lwmod@divisor,w
  2796  0E89  0222               	subwf	___lwmod@dividend,w
  2797  0E8A                     u2245:	
  2798  0E8A  1C03               	skipc
  2799  0E8B  2E8D               	goto	u2241
  2800  0E8C  2E8E               	goto	u2240
  2801  0E8D                     u2241:	
  2802  0E8D  2E94               	goto	l2337
  2803  0E8E                     u2240:	
  2804  0E8E                     l2335:	
  2805  0E8E  0820               	movf	___lwmod@divisor,w
  2806  0E8F  02A2               	subwf	___lwmod@dividend,f
  2807  0E90  0821               	movf	___lwmod@divisor+1,w
  2808  0E91  1C03               	skipc
  2809  0E92  03A3               	decf	___lwmod@dividend+1,f
  2810  0E93  02A3               	subwf	___lwmod@dividend+1,f
  2811  0E94                     l2337:	
  2812  0E94  3001               	movlw	1
  2813  0E95                     u2255:	
  2814  0E95  1003               	clrc
  2815  0E96  0CA1               	rrf	___lwmod@divisor+1,f
  2816  0E97  0CA0               	rrf	___lwmod@divisor,f
  2817  0E98  3EFF               	addlw	-1
  2818  0E99  1D03               	skipz
  2819  0E9A  2E95               	goto	u2255
  2820  0E9B                     l2339:	
  2821  0E9B  3001               	movlw	1
  2822  0E9C  02A5               	subwf	___lwmod@counter,f
  2823  0E9D  1D03               	btfss	3,2
  2824  0E9E  2EA0               	goto	u2261
  2825  0E9F  2EA1               	goto	u2260
  2826  0EA0                     u2261:	
  2827  0EA0  2E84               	goto	l2333
  2828  0EA1                     u2260:	
  2829  0EA1                     l2341:	
  2830  0EA1  0823               	movf	___lwmod@dividend+1,w
  2831  0EA2  00A1               	movwf	?___lwmod+1
  2832  0EA3  0822               	movf	___lwmod@dividend,w
  2833  0EA4  00A0               	movwf	?___lwmod
  2834  0EA5                     l843:	
  2835  0EA5  0008               	return
  2836  0EA6                     __end_of___lwmod:	
  2837                           
  2838                           	psect	text13
  2839  0F70                     __ptext13:	
  2840 ;; *************** function _Sev_Seg_Write *****************
  2841 ;; Defined at:
  2842 ;;		line 14 in file "display7s.c"
  2843 ;; Parameters:    Size  Location     Type
  2844 ;;  Num             2    0[BANK0 ] unsigned int 
  2845 ;; Auto vars:     Size  Location     Type
  2846 ;;		None
  2847 ;; Return value:  Size  Location     Type
  2848 ;;                  1    wreg      void 
  2849 ;; Registers used:
  2850 ;;		wreg, fsr0l, fsr0h, status,2, status,0
  2851 ;; Tracked objects:
  2852 ;;		On entry : 0/0
  2853 ;;		On exit  : 0/0
  2854 ;;		Unchanged: 0/0
  2855 ;; Data sizes:     COMMON   BANK0   BANK1   BANK3   BANK2
  2856 ;;      Params:         0       2       0       0       0
  2857 ;;      Locals:         0       0       0       0       0
  2858 ;;      Temps:          0       0       0       0       0
  2859 ;;      Totals:         0       2       0       0       0
  2860 ;;Total ram usage:        2 bytes
  2861 ;; Hardware stack levels used:    1
  2862 ;; Hardware stack levels required when called:    4
  2863 ;; This function calls:
  2864 ;;		Nothing
  2865 ;; This function is called by:
  2866 ;;		_Sev_Seg_Write_99
  2867 ;; This function uses a non-reentrant model
  2868 ;;
  2869                           
  2870                           
  2871                           ;psect for function _Sev_Seg_Write
  2872  0F70                     _Sev_Seg_Write:	
  2873  0F70                     l2281:	
  2874                           ;incstack = 0
  2875                           ; Regs used in _Sev_Seg_Write: [wreg-fsr0h+status,2+status,0]
  2876                           
  2877                           
  2878                           ;display7s.c: 14: void Sev_Seg_Write( uint16_t Num);display7s.c: 15: {;display7s.c: 16: 
      +                            switch(Num)
  2879  0F70  2F8F               	goto	l2305
  2880  0F71                     l2283:	
  2881                           
  2882                           ;display7s.c: 19:       PORTD = 0x3F;
  2883  0F71  303F               	movlw	63
  2884  0F72  0088               	movwf	8	;volatile
  2885                           
  2886                           ;display7s.c: 20:       break ;
  2887  0F73  2FB6               	goto	l458
  2888  0F74                     l2285:	
  2889                           
  2890                           ;display7s.c: 22:       PORTD = 0x06;
  2891  0F74  3006               	movlw	6
  2892  0F75  0088               	movwf	8	;volatile
  2893                           
  2894                           ;display7s.c: 23:       break ;
  2895  0F76  2FB6               	goto	l458
  2896  0F77                     l2287:	
  2897                           
  2898                           ;display7s.c: 25:       PORTD = 0x5B;
  2899  0F77  305B               	movlw	91
  2900  0F78  0088               	movwf	8	;volatile
  2901                           
  2902                           ;display7s.c: 26:       break ;
  2903  0F79  2FB6               	goto	l458
  2904  0F7A                     l2289:	
  2905                           
  2906                           ;display7s.c: 28:       PORTD = 0x4F;
  2907  0F7A  304F               	movlw	79
  2908  0F7B  0088               	movwf	8	;volatile
  2909                           
  2910                           ;display7s.c: 29:       break ;
  2911  0F7C  2FB6               	goto	l458
  2912  0F7D                     l2291:	
  2913                           
  2914                           ;display7s.c: 31:       PORTD = 0x66;
  2915  0F7D  3066               	movlw	102
  2916  0F7E  0088               	movwf	8	;volatile
  2917                           
  2918                           ;display7s.c: 32:       break ;
  2919  0F7F  2FB6               	goto	l458
  2920  0F80                     l2293:	
  2921                           
  2922                           ;display7s.c: 34:       PORTD = 0x6D;
  2923  0F80  306D               	movlw	109
  2924  0F81  0088               	movwf	8	;volatile
  2925                           
  2926                           ;display7s.c: 35:       break ;
  2927  0F82  2FB6               	goto	l458
  2928  0F83                     l2295:	
  2929                           
  2930                           ;display7s.c: 37:       PORTD = 0x7D;
  2931  0F83  307D               	movlw	125
  2932  0F84  0088               	movwf	8	;volatile
  2933                           
  2934                           ;display7s.c: 38:       break ;
  2935  0F85  2FB6               	goto	l458
  2936  0F86                     l2297:	
  2937                           
  2938                           ;display7s.c: 40:       PORTD = 0x07;
  2939  0F86  3007               	movlw	7
  2940  0F87  0088               	movwf	8	;volatile
  2941                           
  2942                           ;display7s.c: 41:             break ;
  2943  0F88  2FB6               	goto	l458
  2944  0F89                     l2299:	
  2945                           
  2946                           ;display7s.c: 44:       PORTD = 0x7F;
  2947  0F89  307F               	movlw	127
  2948  0F8A  0088               	movwf	8	;volatile
  2949                           
  2950                           ;display7s.c: 45:             break ;
  2951  0F8B  2FB6               	goto	l458
  2952  0F8C                     l2301:	
  2953                           
  2954                           ;display7s.c: 48:       PORTD = 0x6F;
  2955  0F8C  306F               	movlw	111
  2956  0F8D  0088               	movwf	8	;volatile
  2957                           
  2958                           ;display7s.c: 49:           break ;
  2959  0F8E  2FB6               	goto	l458
  2960  0F8F                     l2305:	
  2961                           
  2962                           ; Switch on 2 bytes has been partitioned into a top level switch of size 1, and 1 sub-sw
      +                          itches
  2963                           ; Switch size 1, requested type "simple"
  2964                           ; Number of cases is 1, Range of values is 0 to 0
  2965                           ; switch strategies available:
  2966                           ; Name         Instructions Cycles
  2967                           ; simple_byte            4     3 (average)
  2968                           ; direct_byte           11     8 (fixed)
  2969                           ; jumptable            260     6 (fixed)
  2970                           ;	Chosen strategy is simple_byte
  2971  0F8F  1283               	bcf	3,5	;RP0=0, select bank0
  2972  0F90  1303               	bcf	3,6	;RP1=0, select bank0
  2973  0F91  0821               	movf	Sev_Seg_Write@Num+1,w
  2974  0F92  3A00               	xorlw	0	; case 0
  2975  0F93  1903               	skipnz
  2976  0F94  2F96               	goto	l2719
  2977  0F95  2FB6               	goto	l458
  2978  0F96                     l2719:	
  2979                           
  2980                           ; Switch size 1, requested type "simple"
  2981                           ; Number of cases is 10, Range of values is 0 to 9
  2982                           ; switch strategies available:
  2983                           ; Name         Instructions Cycles
  2984                           ; simple_byte           31    16 (average)
  2985                           ; direct_byte           38     8 (fixed)
  2986                           ; jumptable            260     6 (fixed)
  2987                           ;	Chosen strategy is simple_byte
  2988  0F96  0820               	movf	Sev_Seg_Write@Num,w
  2989  0F97  3A00               	xorlw	0	; case 0
  2990  0F98  1903               	skipnz
  2991  0F99  2F71               	goto	l2283
  2992  0F9A  3A01               	xorlw	1	; case 1
  2993  0F9B  1903               	skipnz
  2994  0F9C  2F74               	goto	l2285
  2995  0F9D  3A03               	xorlw	3	; case 2
  2996  0F9E  1903               	skipnz
  2997  0F9F  2F77               	goto	l2287
  2998  0FA0  3A01               	xorlw	1	; case 3
  2999  0FA1  1903               	skipnz
  3000  0FA2  2F7A               	goto	l2289
  3001  0FA3  3A07               	xorlw	7	; case 4
  3002  0FA4  1903               	skipnz
  3003  0FA5  2F7D               	goto	l2291
  3004  0FA6  3A01               	xorlw	1	; case 5
  3005  0FA7  1903               	skipnz
  3006  0FA8  2F80               	goto	l2293
  3007  0FA9  3A03               	xorlw	3	; case 6
  3008  0FAA  1903               	skipnz
  3009  0FAB  2F83               	goto	l2295
  3010  0FAC  3A01               	xorlw	1	; case 7
  3011  0FAD  1903               	skipnz
  3012  0FAE  2F86               	goto	l2297
  3013  0FAF  3A0F               	xorlw	15	; case 8
  3014  0FB0  1903               	skipnz
  3015  0FB1  2F89               	goto	l2299
  3016  0FB2  3A01               	xorlw	1	; case 9
  3017  0FB3  1903               	skipnz
  3018  0FB4  2F8C               	goto	l2301
  3019  0FB5  2FB6               	goto	l458
  3020  0FB6                     l458:	
  3021  0FB6  0008               	return
  3022  0FB7                     __end_of_Sev_Seg_Write:	
  3023                           
  3024                           	psect	text14
  3025  0D0C                     __ptext14:	
  3026 ;; *************** function _Sev_Seg_Enable *****************
  3027 ;; Defined at:
  3028 ;;		line 60 in file "display7s.c"
  3029 ;; Parameters:    Size  Location     Type
  3030 ;;  Disp            1    wreg     unsigned char 
  3031 ;; Auto vars:     Size  Location     Type
  3032 ;;  Disp            1    2[BANK0 ] unsigned char 
  3033 ;; Return value:  Size  Location     Type
  3034 ;;                  1    wreg      void 
  3035 ;; Registers used:
  3036 ;;		wreg, fsr0l, fsr0h, status,2, status,0
  3037 ;; Tracked objects:
  3038 ;;		On entry : 0/0
  3039 ;;		On exit  : 0/0
  3040 ;;		Unchanged: 0/0
  3041 ;; Data sizes:     COMMON   BANK0   BANK1   BANK3   BANK2
  3042 ;;      Params:         0       0       0       0       0
  3043 ;;      Locals:         0       1       0       0       0
  3044 ;;      Temps:          0       2       0       0       0
  3045 ;;      Totals:         0       3       0       0       0
  3046 ;;Total ram usage:        3 bytes
  3047 ;; Hardware stack levels used:    1
  3048 ;; Hardware stack levels required when called:    4
  3049 ;; This function calls:
  3050 ;;		Nothing
  3051 ;; This function is called by:
  3052 ;;		_Sev_Seg_Write_99
  3053 ;; This function uses a non-reentrant model
  3054 ;;
  3055                           
  3056                           
  3057                           ;psect for function _Sev_Seg_Enable
  3058  0D0C                     _Sev_Seg_Enable:	
  3059                           
  3060                           ;incstack = 0
  3061                           ; Regs used in _Sev_Seg_Enable: [wreg-fsr0h+status,2+status,0]
  3062                           ;Sev_Seg_Enable@Disp stored from wreg
  3063  0D0C  1283               	bcf	3,5	;RP0=0, select bank0
  3064  0D0D  1303               	bcf	3,6	;RP1=0, select bank0
  3065  0D0E  00A2               	movwf	Sev_Seg_Enable@Disp
  3066  0D0F                     l2311:	
  3067                           
  3068                           ;display7s.c: 60: void Sev_Seg_Enable(unsigned char Disp );display7s.c: 61: {;display7s.
      +                          c: 62:     switch (Disp){
  3069  0D0F  2D16               	goto	l2315
  3070  0D10                     l462:	
  3071                           ;display7s.c: 63:         case 1 :
  3072                           
  3073                           
  3074                           ;display7s.c: 64:              RA4 = 1 ;
  3075  0D10  1605               	bsf	5,4	;volatile
  3076                           
  3077                           ;display7s.c: 65:              RA3 = 0 ;
  3078  0D11  1185               	bcf	5,3	;volatile
  3079                           
  3080                           ;display7s.c: 66:              break ;
  3081  0D12  2D26               	goto	l466
  3082  0D13                     l464:	
  3083                           ;display7s.c: 67:         case 2:
  3084                           
  3085                           
  3086                           ;display7s.c: 68:              RA4 = 0 ;
  3087  0D13  1205               	bcf	5,4	;volatile
  3088                           
  3089                           ;display7s.c: 69:              RA3 = 1 ;
  3090  0D14  1585               	bsf	5,3	;volatile
  3091                           
  3092                           ;display7s.c: 70:              break ;
  3093  0D15  2D26               	goto	l466
  3094  0D16                     l2315:	
  3095  0D16  0822               	movf	Sev_Seg_Enable@Disp,w
  3096  0D17  00A0               	movwf	??_Sev_Seg_Enable
  3097  0D18  01A1               	clrf	??_Sev_Seg_Enable+1
  3098                           
  3099                           ; Switch on 2 bytes has been partitioned into a top level switch of size 1, and 1 sub-sw
      +                          itches
  3100                           ; Switch size 1, requested type "simple"
  3101                           ; Number of cases is 1, Range of values is 0 to 0
  3102                           ; switch strategies available:
  3103                           ; Name         Instructions Cycles
  3104                           ; simple_byte            4     3 (average)
  3105                           ; direct_byte           11     8 (fixed)
  3106                           ; jumptable            260     6 (fixed)
  3107                           ;	Chosen strategy is simple_byte
  3108  0D19  0821               	movf	??_Sev_Seg_Enable+1,w
  3109  0D1A  3A00               	xorlw	0	; case 0
  3110  0D1B  1903               	skipnz
  3111  0D1C  2D1E               	goto	l2721
  3112  0D1D  2D26               	goto	l466
  3113  0D1E                     l2721:	
  3114                           
  3115                           ; Switch size 1, requested type "simple"
  3116                           ; Number of cases is 2, Range of values is 1 to 2
  3117                           ; switch strategies available:
  3118                           ; Name         Instructions Cycles
  3119                           ; simple_byte            7     4 (average)
  3120                           ; direct_byte           17    11 (fixed)
  3121                           ; jumptable            263     9 (fixed)
  3122                           ;	Chosen strategy is simple_byte
  3123  0D1E  0820               	movf	??_Sev_Seg_Enable,w
  3124  0D1F  3A01               	xorlw	1	; case 1
  3125  0D20  1903               	skipnz
  3126  0D21  2D10               	goto	l462
  3127  0D22  3A03               	xorlw	3	; case 2
  3128  0D23  1903               	skipnz
  3129  0D24  2D13               	goto	l464
  3130  0D25  2D26               	goto	l466
  3131  0D26                     l466:	
  3132  0D26  0008               	return
  3133  0D27                     __end_of_Sev_Seg_Enable:	
  3134                           
  3135                           	psect	text15
  3136  0C1E                     __ptext15:	
  3137 ;; *************** function _Sev_Seg_Disable *****************
  3138 ;; Defined at:
  3139 ;;		line 79 in file "display7s.c"
  3140 ;; Parameters:    Size  Location     Type
  3141 ;;		None
  3142 ;; Auto vars:     Size  Location     Type
  3143 ;;		None
  3144 ;; Return value:  Size  Location     Type
  3145 ;;                  1    wreg      void 
  3146 ;; Registers used:
  3147 ;;		None
  3148 ;; Tracked objects:
  3149 ;;		On entry : 0/0
  3150 ;;		On exit  : 0/0
  3151 ;;		Unchanged: 0/0
  3152 ;; Data sizes:     COMMON   BANK0   BANK1   BANK3   BANK2
  3153 ;;      Params:         0       0       0       0       0
  3154 ;;      Locals:         0       0       0       0       0
  3155 ;;      Temps:          0       0       0       0       0
  3156 ;;      Totals:         0       0       0       0       0
  3157 ;;Total ram usage:        0 bytes
  3158 ;; Hardware stack levels used:    1
  3159 ;; Hardware stack levels required when called:    4
  3160 ;; This function calls:
  3161 ;;		Nothing
  3162 ;; This function is called by:
  3163 ;;		_Task_OFF_State
  3164 ;;		_Task_ON_State
  3165 ;;		_Task_ChangeTemp_State
  3166 ;; This function uses a non-reentrant model
  3167 ;;
  3168                           
  3169                           
  3170                           ;psect for function _Sev_Seg_Disable
  3171  0C1E                     _Sev_Seg_Disable:	
  3172  0C1E                     l2421:	
  3173                           ;incstack = 0
  3174                           ; Regs used in _Sev_Seg_Disable: []
  3175                           
  3176                           
  3177                           ;display7s.c: 81:                 RA4 = 0 ;
  3178  0C1E  1283               	bcf	3,5	;RP0=0, select bank0
  3179  0C1F  1303               	bcf	3,6	;RP1=0, select bank0
  3180  0C20  1205               	bcf	5,4	;volatile
  3181                           
  3182                           ;display7s.c: 82:                 RA3 = 0 ;
  3183  0C21  1185               	bcf	5,3	;volatile
  3184  0C22                     l469:	
  3185  0C22  0008               	return
  3186  0C23                     __end_of_Sev_Seg_Disable:	
  3187                           
  3188                           	psect	text16
  3189  0C0E                     __ptext16:	
  3190 ;; *************** function _Heating_LED_Off *****************
  3191 ;; Defined at:
  3192 ;;		line 12 in file "Leds.c"
  3193 ;; Parameters:    Size  Location     Type
  3194 ;;		None
  3195 ;; Auto vars:     Size  Location     Type
  3196 ;;		None
  3197 ;; Return value:  Size  Location     Type
  3198 ;;                  1    wreg      void 
  3199 ;; Registers used:
  3200 ;;		None
  3201 ;; Tracked objects:
  3202 ;;		On entry : 0/0
  3203 ;;		On exit  : 0/0
  3204 ;;		Unchanged: 0/0
  3205 ;; Data sizes:     COMMON   BANK0   BANK1   BANK3   BANK2
  3206 ;;      Params:         0       0       0       0       0
  3207 ;;      Locals:         0       0       0       0       0
  3208 ;;      Temps:          0       0       0       0       0
  3209 ;;      Totals:         0       0       0       0       0
  3210 ;;Total ram usage:        0 bytes
  3211 ;; Hardware stack levels used:    1
  3212 ;; Hardware stack levels required when called:    4
  3213 ;; This function calls:
  3214 ;;		Nothing
  3215 ;; This function is called by:
  3216 ;;		_Task_ChangeTemp_State
  3217 ;;		_Adjust_Temp
  3218 ;; This function uses a non-reentrant model
  3219 ;;
  3220                           
  3221                           
  3222                           ;psect for function _Heating_LED_Off
  3223  0C0E                     _Heating_LED_Off:	
  3224  0C0E                     l2249:	
  3225                           ;incstack = 0
  3226                           ; Regs used in _Heating_LED_Off: []
  3227                           
  3228                           
  3229                           ;Leds.c: 14:         PORTBbits.RB7 = 0 ;
  3230  0C0E  1283               	bcf	3,5	;RP0=0, select bank0
  3231  0C0F  1303               	bcf	3,6	;RP1=0, select bank0
  3232  0C10  1386               	bcf	6,7	;volatile
  3233  0C11                     l225:	
  3234  0C11  0008               	return
  3235  0C12                     __end_of_Heating_LED_Off:	
  3236                           
  3237                           	psect	text17
  3238  0C0A                     __ptext17:	
  3239 ;; *************** function _Heater_Stop *****************
  3240 ;; Defined at:
  3241 ;;		line 13 in file "Heater.c"
  3242 ;; Parameters:    Size  Location     Type
  3243 ;;		None
  3244 ;; Auto vars:     Size  Location     Type
  3245 ;;		None
  3246 ;; Return value:  Size  Location     Type
  3247 ;;                  1    wreg      void 
  3248 ;; Registers used:
  3249 ;;		None
  3250 ;; Tracked objects:
  3251 ;;		On entry : 0/0
  3252 ;;		On exit  : 0/0
  3253 ;;		Unchanged: 0/0
  3254 ;; Data sizes:     COMMON   BANK0   BANK1   BANK3   BANK2
  3255 ;;      Params:         0       0       0       0       0
  3256 ;;      Locals:         0       0       0       0       0
  3257 ;;      Temps:          0       0       0       0       0
  3258 ;;      Totals:         0       0       0       0       0
  3259 ;;Total ram usage:        0 bytes
  3260 ;; Hardware stack levels used:    1
  3261 ;; Hardware stack levels required when called:    4
  3262 ;; This function calls:
  3263 ;;		Nothing
  3264 ;; This function is called by:
  3265 ;;		_Task_OFF_State
  3266 ;;		_Task_ChangeTemp_State
  3267 ;;		_Adjust_Temp
  3268 ;; This function uses a non-reentrant model
  3269 ;;
  3270                           
  3271                           
  3272                           ;psect for function _Heater_Stop
  3273  0C0A                     _Heater_Stop:	
  3274  0C0A                     l2245:	
  3275                           ;incstack = 0
  3276                           ; Regs used in _Heater_Stop: []
  3277                           
  3278                           
  3279                           ;Heater.c: 14:         PORTCbits.RC5 = 0 ;
  3280  0C0A  1283               	bcf	3,5	;RP0=0, select bank0
  3281  0C0B  1303               	bcf	3,6	;RP1=0, select bank0
  3282  0C0C  1287               	bcf	7,5	;volatile
  3283  0C0D                     l164:	
  3284  0C0D  0008               	return
  3285  0C0E                     __end_of_Heater_Stop:	
  3286                           
  3287                           	psect	text18
  3288  0C06                     __ptext18:	
  3289 ;; *************** function _Fan_Stop *****************
  3290 ;; Defined at:
  3291 ;;		line 11 in file "Fan.c"
  3292 ;; Parameters:    Size  Location     Type
  3293 ;;		None
  3294 ;; Auto vars:     Size  Location     Type
  3295 ;;		None
  3296 ;; Return value:  Size  Location     Type
  3297 ;;                  1    wreg      void 
  3298 ;; Registers used:
  3299 ;;		None
  3300 ;; Tracked objects:
  3301 ;;		On entry : 0/0
  3302 ;;		On exit  : 0/0
  3303 ;;		Unchanged: 0/0
  3304 ;; Data sizes:     COMMON   BANK0   BANK1   BANK3   BANK2
  3305 ;;      Params:         0       0       0       0       0
  3306 ;;      Locals:         0       0       0       0       0
  3307 ;;      Temps:          0       0       0       0       0
  3308 ;;      Totals:         0       0       0       0       0
  3309 ;;Total ram usage:        0 bytes
  3310 ;; Hardware stack levels used:    1
  3311 ;; Hardware stack levels required when called:    4
  3312 ;; This function calls:
  3313 ;;		Nothing
  3314 ;; This function is called by:
  3315 ;;		_Task_OFF_State
  3316 ;;		_Task_ChangeTemp_State
  3317 ;;		_Adjust_Temp
  3318 ;; This function uses a non-reentrant model
  3319 ;;
  3320                           
  3321                           
  3322                           ;psect for function _Fan_Stop
  3323  0C06                     _Fan_Stop:	
  3324  0C06                     l2241:	
  3325                           ;incstack = 0
  3326                           ; Regs used in _Fan_Stop: []
  3327                           
  3328                           
  3329                           ;Fan.c: 12:     PORTCbits.RC2 = 0 ;
  3330  0C06  1283               	bcf	3,5	;RP0=0, select bank0
  3331  0C07  1303               	bcf	3,6	;RP1=0, select bank0
  3332  0C08  1107               	bcf	7,2	;volatile
  3333  0C09                     l151:	
  3334  0C09  0008               	return
  3335  0C0A                     __end_of_Fan_Stop:	
  3336                           
  3337                           	psect	text19
  3338  0CF1                     __ptext19:	
  3339 ;; *************** function _Down_Pressed *****************
  3340 ;; Defined at:
  3341 ;;		line 39 in file "Buttons.c"
  3342 ;; Parameters:    Size  Location     Type
  3343 ;;		None
  3344 ;; Auto vars:     Size  Location     Type
  3345 ;;		None
  3346 ;; Return value:  Size  Location     Type
  3347 ;;                  1    wreg      unsigned char 
  3348 ;; Registers used:
  3349 ;;		wreg
  3350 ;; Tracked objects:
  3351 ;;		On entry : 0/0
  3352 ;;		On exit  : 0/0
  3353 ;;		Unchanged: 0/0
  3354 ;; Data sizes:     COMMON   BANK0   BANK1   BANK3   BANK2
  3355 ;;      Params:         0       0       0       0       0
  3356 ;;      Locals:         0       0       0       0       0
  3357 ;;      Temps:          0       2       0       0       0
  3358 ;;      Totals:         0       2       0       0       0
  3359 ;;Total ram usage:        2 bytes
  3360 ;; Hardware stack levels used:    1
  3361 ;; Hardware stack levels required when called:    4
  3362 ;; This function calls:
  3363 ;;		Nothing
  3364 ;; This function is called by:
  3365 ;;		_Task_ON_State
  3366 ;;		_Task_ChangeTemp_State
  3367 ;; This function uses a non-reentrant model
  3368 ;;
  3369                           
  3370                           
  3371                           ;psect for function _Down_Pressed
  3372  0CF1                     _Down_Pressed:	
  3373  0CF1                     l2375:	
  3374                           ;incstack = 0
  3375                           ; Regs used in _Down_Pressed: [wreg]
  3376                           
  3377                           
  3378                           ;Buttons.c: 40:      if(RB1 == 0 ){
  3379  0CF1  1283               	bcf	3,5	;RP0=0, select bank0
  3380  0CF2  1303               	bcf	3,6	;RP1=0, select bank0
  3381  0CF3  1886               	btfsc	6,1	;volatile
  3382  0CF4  2CF6               	goto	u2311
  3383  0CF5  2CF7               	goto	u2310
  3384  0CF6                     u2311:	
  3385  0CF6  2D0A               	goto	l2387
  3386  0CF7                     u2310:	
  3387  0CF7                     l2377:	
  3388                           
  3389                           ;Buttons.c: 41:           _delay((unsigned long)((75)*(8000000/4000.0)));
  3390  0CF7  30C3               	movlw	195
  3391  0CF8  1283               	bcf	3,5	;RP0=0, select bank0
  3392  0CF9  1303               	bcf	3,6	;RP1=0, select bank0
  3393  0CFA  00A1               	movwf	??_Down_Pressed+1
  3394  0CFB  30CC               	movlw	204
  3395  0CFC  00A0               	movwf	??_Down_Pressed
  3396  0CFD                     u2647:	
  3397  0CFD  0BA0               	decfsz	??_Down_Pressed,f
  3398  0CFE  2CFD               	goto	u2647
  3399  0CFF  0BA1               	decfsz	??_Down_Pressed+1,f
  3400  0D00  2CFD               	goto	u2647
  3401  0D01  0000               	nop
  3402  0D02                     l2379:	
  3403                           
  3404                           ;Buttons.c: 43:                 if(RB1 == 0 ){
  3405  0D02  1283               	bcf	3,5	;RP0=0, select bank0
  3406  0D03  1303               	bcf	3,6	;RP1=0, select bank0
  3407  0D04  1886               	btfsc	6,1	;volatile
  3408  0D05  2D07               	goto	u2321
  3409  0D06  2D08               	goto	u2320
  3410  0D07                     u2321:	
  3411  0D07  2D0A               	goto	l2387
  3412  0D08                     u2320:	
  3413  0D08                     l2381:	
  3414                           
  3415                           ;Buttons.c: 44:                     return 1 ;
  3416  0D08  3001               	movlw	1
  3417  0D09  2D0B               	goto	l36
  3418  0D0A                     l2387:	
  3419                           
  3420                           ;Buttons.c: 47:                     return 0 ;
  3421  0D0A  3000               	movlw	0
  3422  0D0B                     l36:	
  3423  0D0B  0008               	return
  3424  0D0C                     __end_of_Down_Pressed:	
  3425                           
  3426                           	psect	text20
  3427  0FB7                     __ptext20:	
  3428 ;; *************** function _Sys_Init *****************
  3429 ;; Defined at:
  3430 ;;		line 73 in file "System.c"
  3431 ;; Parameters:    Size  Location     Type
  3432 ;;		None
  3433 ;; Auto vars:     Size  Location     Type
  3434 ;;		None
  3435 ;; Return value:  Size  Location     Type
  3436 ;;                  1    wreg      void 
  3437 ;; Registers used:
  3438 ;;		wreg, fsr0l, fsr0h, status,2, status,0, btemp+1, pclath, cstack
  3439 ;; Tracked objects:
  3440 ;;		On entry : 0/0
  3441 ;;		On exit  : 0/0
  3442 ;;		Unchanged: 0/0
  3443 ;; Data sizes:     COMMON   BANK0   BANK1   BANK3   BANK2
  3444 ;;      Params:         0       0       0       0       0
  3445 ;;      Locals:         0       0       0       0       0
  3446 ;;      Temps:          0       1       0       0       0
  3447 ;;      Totals:         0       1       0       0       0
  3448 ;;Total ram usage:        1 bytes
  3449 ;; Hardware stack levels used:    1
  3450 ;; Hardware stack levels required when called:    8
  3451 ;; This function calls:
  3452 ;;		_Buttons_Init
  3453 ;;		_EEPROM_Init
  3454 ;;		_EEPROM_Write
  3455 ;;		_Fan_Init
  3456 ;;		_Heater_Init
  3457 ;;		_Heating_LED_Init
  3458 ;;		_ON_Button_EXTI_Init
  3459 ;;		_Sev_Seg_Init
  3460 ;;		_TMR0_Init
  3461 ;;		_TMR1_Init
  3462 ;;		_Temp_Array_Init
  3463 ;;		_Temp_Sensor_ADC_Init
  3464 ;; This function is called by:
  3465 ;;		_main
  3466 ;; This function uses a non-reentrant model
  3467 ;;
  3468                           
  3469                           
  3470                           ;psect for function _Sys_Init
  3471  0FB7                     _Sys_Init:	
  3472  0FB7                     l2511:	
  3473                           ;incstack = 0
  3474 ;; hardware stack exceeded
  3475                           ; Regs used in _Sys_Init: [wreg-fsr0h+status,2+status,0+btemp+1+pclath+cstack]
  3476                           
  3477                           
  3478                           ;System.c: 79:        Sev_Seg_Init();
  3479  0FB7  120A  158A  2429  120A  158A  	fcall	_Sev_Seg_Init
  3480                           
  3481                           ;System.c: 80:        Buttons_Init();
  3482  0FBC  120A  158A  2423  120A  158A  	fcall	_Buttons_Init
  3483                           
  3484                           ;System.c: 81:        ON_Button_EXTI_Init();
  3485  0FC1  120A  158A  243D  120A  158A  	fcall	_ON_Button_EXTI_Init
  3486                           
  3487                           ;System.c: 82:        Fan_Init();
  3488  0FC6  120A  158A  23FE  120A  158A  	fcall	_Fan_Init
  3489                           
  3490                           ;System.c: 83:        Heater_Init();
  3491  0FCB  120A  158A  2402  120A  158A  	fcall	_Heater_Init
  3492                           
  3493                           ;System.c: 84:        Temp_Sensor_ADC_Init();
  3494  0FD0  120A  158A  24DB  120A  158A  	fcall	_Temp_Sensor_ADC_Init
  3495  0FD5                     l2513:	
  3496                           
  3497                           ;System.c: 85:        TMR1_Init();
  3498  0FD5  120A  158A  24C9  120A  158A  	fcall	_TMR1_Init
  3499  0FDA                     l2515:	
  3500                           
  3501                           ;System.c: 86:        TMR0_Init();
  3502  0FDA  120A  158A  249A  120A  158A  	fcall	_TMR0_Init
  3503                           
  3504                           ;System.c: 87:        Heating_LED_Init();
  3505  0FDF  120A  158A  2436  120A  158A  	fcall	_Heating_LED_Init
  3506  0FE4                     l2517:	
  3507                           
  3508                           ;System.c: 88:        EEPROM_Init();
  3509  0FE4  120A  158A  242F  120A  158A  	fcall	_EEPROM_Init
  3510  0FE9                     l2519:	
  3511                           
  3512                           ;System.c: 89:        Temp_Array_Init();
  3513  0FE9  120A  158A  25DD  120A  158A  	fcall	_Temp_Array_Init
  3514  0FEE                     l2521:	
  3515                           
  3516                           ;System.c: 90:        Current_State = 0 ;
  3517  0FEE  01FA               	clrf	_Current_State	;volatile
  3518  0FEF                     l2523:	
  3519                           
  3520                           ;System.c: 91:        Desired_Temp = 60;
  3521  0FEF  303C               	movlw	60
  3522  0FF0  1283               	bcf	3,5	;RP0=0, select bank0
  3523  0FF1  1303               	bcf	3,6	;RP1=0, select bank0
  3524  0FF2  00E4               	movwf	_Desired_Temp
  3525  0FF3  3000               	movlw	0
  3526  0FF4  00E5               	movwf	_Desired_Temp+1
  3527  0FF5                     l2525:	
  3528                           
  3529                           ;System.c: 92:        EEPROM_Write(0x00 ,60 );
  3530  0FF5  303C               	movlw	60
  3531  0FF6  00DD               	movwf	??_Sys_Init
  3532  0FF7  085D               	movf	??_Sys_Init,w
  3533  0FF8  00A1               	movwf	EEPROM_Write@Value
  3534  0FF9  3000               	movlw	0
  3535  0FFA  120A  118A  27DA  120A  158A  	fcall	_EEPROM_Write
  3536  0FFF                     l325:	
  3537  0FFF  0008               	return
  3538  1000                     __end_of_Sys_Init:	
  3539                           
  3540                           	psect	text21
  3541  0CDB                     __ptext21:	
  3542 ;; *************** function _Temp_Sensor_ADC_Init *****************
  3543 ;; Defined at:
  3544 ;;		line 8 in file "Temp.c"
  3545 ;; Parameters:    Size  Location     Type
  3546 ;;		None
  3547 ;; Auto vars:     Size  Location     Type
  3548 ;;		None
  3549 ;; Return value:  Size  Location     Type
  3550 ;;                  1    wreg      void 
  3551 ;; Registers used:
  3552 ;;		None
  3553 ;; Tracked objects:
  3554 ;;		On entry : 0/0
  3555 ;;		On exit  : 0/0
  3556 ;;		Unchanged: 0/0
  3557 ;; Data sizes:     COMMON   BANK0   BANK1   BANK3   BANK2
  3558 ;;      Params:         0       0       0       0       0
  3559 ;;      Locals:         0       0       0       0       0
  3560 ;;      Temps:          0       0       0       0       0
  3561 ;;      Totals:         0       0       0       0       0
  3562 ;;Total ram usage:        0 bytes
  3563 ;; Hardware stack levels used:    1
  3564 ;; Hardware stack levels required when called:    4
  3565 ;; This function calls:
  3566 ;;		Nothing
  3567 ;; This function is called by:
  3568 ;;		_Sys_Init
  3569 ;; This function uses a non-reentrant model
  3570 ;;
  3571                           
  3572                           
  3573                           ;psect for function _Temp_Sensor_ADC_Init
  3574  0CDB                     _Temp_Sensor_ADC_Init:	
  3575  0CDB                     l2473:	
  3576                           ;incstack = 0
  3577                           ; Regs used in _Temp_Sensor_ADC_Init: []
  3578                           
  3579                           
  3580                           ;Temp.c: 11:         ADCON0bits.ADON = 1;
  3581  0CDB  1283               	bcf	3,5	;RP0=0, select bank0
  3582  0CDC  1303               	bcf	3,6	;RP1=0, select bank0
  3583  0CDD  141F               	bsf	31,0	;volatile
  3584                           
  3585                           ;Temp.c: 13:         ADCON0bits.ADCS0 = 0;
  3586  0CDE  131F               	bcf	31,6	;volatile
  3587                           
  3588                           ;Temp.c: 14:         ADCON0bits.ADCS1 = 0;
  3589  0CDF  139F               	bcf	31,7	;volatile
  3590                           
  3591                           ;Temp.c: 15:         ADCON1bits.ADCS2 = 0;
  3592  0CE0  1683               	bsf	3,5	;RP0=1, select bank1
  3593  0CE1  1303               	bcf	3,6	;RP1=0, select bank1
  3594  0CE2  131F               	bcf	31,6	;volatile
  3595                           
  3596                           ;Temp.c: 17:         ADCON0bits.CHS0 = 0 ;
  3597  0CE3  1283               	bcf	3,5	;RP0=0, select bank0
  3598  0CE4  1303               	bcf	3,6	;RP1=0, select bank0
  3599  0CE5  119F               	bcf	31,3	;volatile
  3600                           
  3601                           ;Temp.c: 18:         ADCON0bits.CHS1 = 1 ;
  3602  0CE6  161F               	bsf	31,4	;volatile
  3603                           
  3604                           ;Temp.c: 19:         ADCON0bits.CHS2 = 0 ;
  3605  0CE7  129F               	bcf	31,5	;volatile
  3606                           
  3607                           ;Temp.c: 21:         ADCON1bits.ADFM = 1 ;
  3608  0CE8  1683               	bsf	3,5	;RP0=1, select bank1
  3609  0CE9  1303               	bcf	3,6	;RP1=0, select bank1
  3610  0CEA  179F               	bsf	31,7	;volatile
  3611                           
  3612                           ;Temp.c: 23:         ADCON1bits.PCFG0 = 0 ;
  3613  0CEB  101F               	bcf	31,0	;volatile
  3614                           
  3615                           ;Temp.c: 24:         ADCON1bits.PCFG1 = 0 ;
  3616  0CEC  109F               	bcf	31,1	;volatile
  3617                           
  3618                           ;Temp.c: 25:         ADCON1bits.PCFG2 = 0 ;
  3619  0CED  111F               	bcf	31,2	;volatile
  3620                           
  3621                           ;Temp.c: 26:         ADCON1bits.PCFG3 = 0 ;
  3622  0CEE  119F               	bcf	31,3	;volatile
  3623                           
  3624                           ;Temp.c: 30:         TRISAbits.TRISA2 = 1 ;
  3625  0CEF  1505               	bsf	5,2	;volatile
  3626  0CF0                     l398:	
  3627  0CF0  0008               	return
  3628  0CF1                     __end_of_Temp_Sensor_ADC_Init:	
  3629                           
  3630                           	psect	text22
  3631  0DDD                     __ptext22:	
  3632 ;; *************** function _Temp_Array_Init *****************
  3633 ;; Defined at:
  3634 ;;		line 166 in file "System.c"
  3635 ;; Parameters:    Size  Location     Type
  3636 ;;		None
  3637 ;; Auto vars:     Size  Location     Type
  3638 ;;  i               1   60[BANK0 ] unsigned char 
  3639 ;; Return value:  Size  Location     Type
  3640 ;;                  1    wreg      void 
  3641 ;; Registers used:
  3642 ;;		wreg, fsr0l, fsr0h, status,2, status,0, btemp+1, pclath, cstack
  3643 ;; Tracked objects:
  3644 ;;		On entry : 0/0
  3645 ;;		On exit  : 0/0
  3646 ;;		Unchanged: 0/0
  3647 ;; Data sizes:     COMMON   BANK0   BANK1   BANK3   BANK2
  3648 ;;      Params:         0       0       0       0       0
  3649 ;;      Locals:         0       1       0       0       0
  3650 ;;      Temps:          0       1       0       0       0
  3651 ;;      Totals:         0       2       0       0       0
  3652 ;;Total ram usage:        2 bytes
  3653 ;; Hardware stack levels used:    1
  3654 ;; Hardware stack levels required when called:    7
  3655 ;; This function calls:
  3656 ;;		_Calc_Temp_Avg
  3657 ;;		_Temp_Sensor_ADC_Read
  3658 ;; This function is called by:
  3659 ;;		_Sys_Init
  3660 ;; This function uses a non-reentrant model
  3661 ;;
  3662                           
  3663                           
  3664                           ;psect for function _Temp_Array_Init
  3665  0DDD                     _Temp_Array_Init:	
  3666  0DDD                     l2483:	
  3667                           ;incstack = 0
  3668 ;; hardware stack exceeded
  3669                           ; Regs used in _Temp_Array_Init: [wreg-fsr0h+status,2+status,0+btemp+1+pclath+cstack]
  3670                           
  3671                           
  3672                           ;System.c: 172:         First_Temp_Measured = Temp_Sensor_ADC_Read();
  3673  0DDD  120A  118A  2726  120A  158A  	fcall	_Temp_Sensor_ADC_Read
  3674  0DE2  1283               	bcf	3,5	;RP0=0, select bank0
  3675  0DE3  1303               	bcf	3,6	;RP1=0, select bank0
  3676  0DE4  0854               	movf	?_Temp_Sensor_ADC_Read+1,w
  3677  0DE5  00E8               	movwf	_First_Temp_Measured+1
  3678  0DE6  0853               	movf	?_Temp_Sensor_ADC_Read,w
  3679  0DE7  00E7               	movwf	_First_Temp_Measured
  3680  0DE8                     l2485:	
  3681                           
  3682                           ;System.c: 174:        for(uint8_t i =0 ; i<10 ; i++)
  3683  0DE8  01DC               	clrf	Temp_Array_Init@i
  3684  0DE9                     l2491:	
  3685                           
  3686                           ;System.c: 175:        {;System.c: 176:           Temp_Measurments[i] = First_Temp_Measu
      +                          red ;
  3687  0DE9  085C               	movf	Temp_Array_Init@i,w
  3688  0DEA  00DB               	movwf	??_Temp_Array_Init
  3689  0DEB  075B               	addwf	??_Temp_Array_Init,w
  3690  0DEC  3EA0               	addlw	(low (_Temp_Measurments| 0))& (0+255)
  3691  0DED  0084               	movwf	4
  3692  0DEE  0867               	movf	_First_Temp_Measured,w
  3693  0DEF  1383               	bcf	3,7	;select IRP bank1
  3694  0DF0  0080               	movwf	0
  3695  0DF1  0A84               	incf	4,f
  3696  0DF2  0868               	movf	_First_Temp_Measured+1,w
  3697  0DF3  0080               	movwf	0
  3698  0DF4                     l2493:	
  3699                           
  3700                           ;System.c: 177:        }
  3701  0DF4  3001               	movlw	1
  3702  0DF5  00DB               	movwf	??_Temp_Array_Init
  3703  0DF6  085B               	movf	??_Temp_Array_Init,w
  3704  0DF7  07DC               	addwf	Temp_Array_Init@i,f
  3705  0DF8                     l2495:	
  3706  0DF8  300A               	movlw	10
  3707  0DF9  025C               	subwf	Temp_Array_Init@i,w
  3708  0DFA  1C03               	skipc
  3709  0DFB  2DFD               	goto	u2411
  3710  0DFC  2DFE               	goto	u2410
  3711  0DFD                     u2411:	
  3712  0DFD  2DE9               	goto	l2491
  3713  0DFE                     u2410:	
  3714  0DFE                     l2497:	
  3715                           
  3716                           ;System.c: 181:          Actual_Temp_Avg = Calc_Temp_Avg(Temp_Measurments);
  3717  0DFE  30A0               	movlw	(low (_Temp_Measurments| 0))& (0+255)
  3718  0DFF  120A  158A  26A6  120A  158A  	fcall	_Calc_Temp_Avg
  3719  0E04  1283               	bcf	3,5	;RP0=0, select bank0
  3720  0E05  1303               	bcf	3,6	;RP1=0, select bank0
  3721  0E06  0829               	movf	?_Calc_Temp_Avg+1,w
  3722  0E07  00E1               	movwf	_Actual_Temp_Avg+1
  3723  0E08  0828               	movf	?_Calc_Temp_Avg,w
  3724  0E09  00E0               	movwf	_Actual_Temp_Avg
  3725  0E0A                     l349:	
  3726  0E0A  0008               	return
  3727  0E0B                     __end_of_Temp_Array_Init:	
  3728                           
  3729                           	psect	text23
  3730  0726                     __ptext23:	
  3731 ;; *************** function _Temp_Sensor_ADC_Read *****************
  3732 ;; Defined at:
  3733 ;;		line 34 in file "Temp.c"
  3734 ;; Parameters:    Size  Location     Type
  3735 ;;		None
  3736 ;; Auto vars:     Size  Location     Type
  3737 ;;  result          2   57[BANK0 ] unsigned int 
  3738 ;; Return value:  Size  Location     Type
  3739 ;;                  2   51[BANK0 ] unsigned int 
  3740 ;; Registers used:
  3741 ;;		wreg, status,2, status,0, btemp+1, pclath, cstack
  3742 ;; Tracked objects:
  3743 ;;		On entry : 0/0
  3744 ;;		On exit  : 0/0
  3745 ;;		Unchanged: 0/0
  3746 ;; Data sizes:     COMMON   BANK0   BANK1   BANK3   BANK2
  3747 ;;      Params:         0       2       0       0       0
  3748 ;;      Locals:         0       2       0       0       0
  3749 ;;      Temps:          0       4       0       0       0
  3750 ;;      Totals:         0       8       0       0       0
  3751 ;;Total ram usage:        8 bytes
  3752 ;; Hardware stack levels used:    1
  3753 ;; Hardware stack levels required when called:    6
  3754 ;; This function calls:
  3755 ;;		___flmul
  3756 ;;		___fltol
  3757 ;;		___xxtofl
  3758 ;; This function is called by:
  3759 ;;		_Task_ON_State
  3760 ;;		_Temp_Array_Init
  3761 ;; This function uses a non-reentrant model
  3762 ;;
  3763                           
  3764                           
  3765                           ;psect for function _Temp_Sensor_ADC_Read
  3766  0726                     _Temp_Sensor_ADC_Read:	
  3767  0726                     l2253:	
  3768                           ;incstack = 0
  3769                           ; Regs used in _Temp_Sensor_ADC_Read: [wreg+status,2+status,0+btemp+1+pclath+cstack]
  3770                           
  3771                           
  3772                           ;Temp.c: 36:       uint16_t result ;;Temp.c: 38:              _delay((unsigned long)((30
      +                          )*(8000000/4000000.0)));
  3773  0726  3013               	movlw	19
  3774  0727  1283               	bcf	3,5	;RP0=0, select bank0
  3775  0728  1303               	bcf	3,6	;RP1=0, select bank0
  3776  0729  00D5               	movwf	??_Temp_Sensor_ADC_Read
  3777  072A                     u2657:	
  3778  072A  0BD5               	decfsz	??_Temp_Sensor_ADC_Read,f
  3779  072B  2F2A               	goto	u2657
  3780  072C                     l2255:	
  3781                           
  3782                           ;Temp.c: 41:              ADCON0bits.GO_nDONE = 1 ;
  3783  072C  1283               	bcf	3,5	;RP0=0, select bank0
  3784  072D  1303               	bcf	3,6	;RP1=0, select bank0
  3785  072E  151F               	bsf	31,2	;volatile
  3786  072F                     l401:	
  3787                           ;Temp.c: 44:             while( ADCON0bits.GO_nDONE == 1 );
  3788                           
  3789  072F  191F               	btfsc	31,2	;volatile
  3790  0730  2F32               	goto	u2191
  3791  0731  2F33               	goto	u2190
  3792  0732                     u2191:	
  3793  0732  2F2F               	goto	l401
  3794  0733                     u2190:	
  3795  0733                     l2257:	
  3796                           
  3797                           ;Temp.c: 48:             result = ( (ADRESH<<8) | ADRESL ) * 0.489 ;
  3798  0733  1683               	bsf	3,5	;RP0=1, select bank1
  3799  0734  1303               	bcf	3,6	;RP1=0, select bank1
  3800  0735  081E               	movf	30,w	;volatile
  3801  0736  1283               	bcf	3,5	;RP0=0, select bank0
  3802  0737  1303               	bcf	3,6	;RP1=0, select bank0
  3803  0738  00D5               	movwf	??_Temp_Sensor_ADC_Read
  3804  0739  01D6               	clrf	??_Temp_Sensor_ADC_Read+1
  3805  073A  081E               	movf	30,w	;volatile
  3806  073B  00D7               	movwf	??_Temp_Sensor_ADC_Read+2
  3807  073C  01D8               	clrf	??_Temp_Sensor_ADC_Read+3
  3808  073D  0857               	movf	??_Temp_Sensor_ADC_Read+2,w
  3809  073E  00D8               	movwf	??_Temp_Sensor_ADC_Read+3
  3810  073F  01D7               	clrf	??_Temp_Sensor_ADC_Read+2
  3811  0740  0855               	movf	??_Temp_Sensor_ADC_Read,w
  3812  0741  0457               	iorwf	??_Temp_Sensor_ADC_Read+2,w
  3813  0742  00A0               	movwf	___xxtofl@val
  3814  0743  0856               	movf	??_Temp_Sensor_ADC_Read+1,w
  3815  0744  0458               	iorwf	??_Temp_Sensor_ADC_Read+3,w
  3816  0745  00A1               	movwf	___xxtofl@val+1
  3817  0746  01A2               	clrf	___xxtofl@val+2
  3818  0747  1BA1               	btfsc	___xxtofl@val+1,7
  3819  0748  03A2               	decf	___xxtofl@val+2,f
  3820  0749  0822               	movf	___xxtofl@val+2,w
  3821  074A  00A3               	movwf	___xxtofl@val+3
  3822  074B  3001               	movlw	1
  3823  074C  120A  118A  238D  120A  118A  	fcall	___xxtofl
  3824  0751  1283               	bcf	3,5	;RP0=0, select bank0
  3825  0752  1303               	bcf	3,6	;RP1=0, select bank0
  3826  0753  0823               	movf	?___xxtofl+3,w
  3827  0754  00B5               	movwf	___flmul@a+3
  3828  0755  0822               	movf	?___xxtofl+2,w
  3829  0756  00B4               	movwf	___flmul@a+2
  3830  0757  0821               	movf	?___xxtofl+1,w
  3831  0758  00B3               	movwf	___flmul@a+1
  3832  0759  0820               	movf	?___xxtofl,w
  3833  075A  00B2               	movwf	___flmul@a
  3834  075B  303E               	movlw	62
  3835  075C  00B1               	movwf	___flmul@b+3
  3836  075D  30FA               	movlw	250
  3837  075E  00B0               	movwf	___flmul@b+2
  3838  075F  305E               	movlw	94
  3839  0760  00AF               	movwf	___flmul@b+1
  3840  0761  3035               	movlw	53
  3841  0762  00AE               	movwf	___flmul@b
  3842  0763  120A  118A  202C  120A  118A  	fcall	___flmul
  3843  0768  1283               	bcf	3,5	;RP0=0, select bank0
  3844  0769  1303               	bcf	3,6	;RP1=0, select bank0
  3845  076A  0831               	movf	?___flmul+3,w
  3846  076B  00CB               	movwf	___fltol@f1+3
  3847  076C  0830               	movf	?___flmul+2,w
  3848  076D  00CA               	movwf	___fltol@f1+2
  3849  076E  082F               	movf	?___flmul+1,w
  3850  076F  00C9               	movwf	___fltol@f1+1
  3851  0770  082E               	movf	?___flmul,w
  3852  0771  00C8               	movwf	___fltol@f1
  3853  0772  120A  118A  2567  120A  118A  	fcall	___fltol
  3854  0777  1283               	bcf	3,5	;RP0=0, select bank0
  3855  0778  1303               	bcf	3,6	;RP1=0, select bank0
  3856  0779  0849               	movf	?___fltol+1,w
  3857  077A  00DA               	movwf	Temp_Sensor_ADC_Read@result+1
  3858  077B  0848               	movf	?___fltol,w
  3859  077C  00D9               	movwf	Temp_Sensor_ADC_Read@result
  3860  077D                     l2259:	
  3861                           
  3862                           ;Temp.c: 50:             return result ;
  3863  077D  085A               	movf	Temp_Sensor_ADC_Read@result+1,w
  3864  077E  00D4               	movwf	?_Temp_Sensor_ADC_Read+1
  3865  077F  0859               	movf	Temp_Sensor_ADC_Read@result,w
  3866  0780  00D3               	movwf	?_Temp_Sensor_ADC_Read
  3867  0781                     l404:	
  3868  0781  0008               	return
  3869  0782                     __end_of_Temp_Sensor_ADC_Read:	
  3870                           
  3871                           	psect	text24
  3872  038D                     __ptext24:	
  3873 ;; *************** function ___xxtofl *****************
  3874 ;; Defined at:
  3875 ;;		line 10 in file "C:\Program Files (x86)\Microchip\xc8\v2.10\pic\sources\c90\common\xxtofl.c"
  3876 ;; Parameters:    Size  Location     Type
  3877 ;;  sign            1    wreg     unsigned char 
  3878 ;;  val             4    0[BANK0 ] long 
  3879 ;; Auto vars:     Size  Location     Type
  3880 ;;  sign            1    8[BANK0 ] unsigned char 
  3881 ;;  arg             4   10[BANK0 ] unsigned long 
  3882 ;;  exp             1    9[BANK0 ] unsigned char 
  3883 ;; Return value:  Size  Location     Type
  3884 ;;                  4    0[BANK0 ] unsigned char 
  3885 ;; Registers used:
  3886 ;;		wreg, status,2, status,0
  3887 ;; Tracked objects:
  3888 ;;		On entry : 0/0
  3889 ;;		On exit  : 0/0
  3890 ;;		Unchanged: 0/0
  3891 ;; Data sizes:     COMMON   BANK0   BANK1   BANK3   BANK2
  3892 ;;      Params:         0       4       0       0       0
  3893 ;;      Locals:         0       6       0       0       0
  3894 ;;      Temps:          0       4       0       0       0
  3895 ;;      Totals:         0      14       0       0       0
  3896 ;;Total ram usage:       14 bytes
  3897 ;; Hardware stack levels used:    1
  3898 ;; Hardware stack levels required when called:    4
  3899 ;; This function calls:
  3900 ;;		Nothing
  3901 ;; This function is called by:
  3902 ;;		_Temp_Sensor_ADC_Read
  3903 ;; This function uses a non-reentrant model
  3904 ;;
  3905                           
  3906                           
  3907                           ;psect for function ___xxtofl
  3908  038D                     ___xxtofl:	
  3909                           
  3910                           ;incstack = 0
  3911                           ; Regs used in ___xxtofl: [wreg+status,2+status,0]
  3912                           ;___xxtofl@sign stored from wreg
  3913  038D  1283               	bcf	3,5	;RP0=0, select bank0
  3914  038E  1303               	bcf	3,6	;RP1=0, select bank0
  3915  038F  00A8               	movwf	___xxtofl@sign
  3916  0390                     l2173:	
  3917  0390  0828               	movf	___xxtofl@sign,w
  3918  0391  1903               	btfsc	3,2
  3919  0392  2B94               	goto	u2051
  3920  0393  2B95               	goto	u2050
  3921  0394                     u2051:	
  3922  0394  2BA9               	goto	l2179
  3923  0395                     u2050:	
  3924  0395                     l2175:	
  3925  0395  1FA3               	btfss	___xxtofl@val+3,7
  3926  0396  2B98               	goto	u2061
  3927  0397  2B99               	goto	u2060
  3928  0398                     u2061:	
  3929  0398  2BA9               	goto	l2179
  3930  0399                     u2060:	
  3931  0399                     l2177:	
  3932  0399  0920               	comf	___xxtofl@val,w
  3933  039A  00AA               	movwf	___xxtofl@arg
  3934  039B  0921               	comf	___xxtofl@val+1,w
  3935  039C  00AB               	movwf	___xxtofl@arg+1
  3936  039D  0922               	comf	___xxtofl@val+2,w
  3937  039E  00AC               	movwf	___xxtofl@arg+2
  3938  039F  0923               	comf	___xxtofl@val+3,w
  3939  03A0  00AD               	movwf	___xxtofl@arg+3
  3940  03A1  0AAA               	incf	___xxtofl@arg,f
  3941  03A2  1903               	skipnz
  3942  03A3  0AAB               	incf	___xxtofl@arg+1,f
  3943  03A4  1903               	skipnz
  3944  03A5  0AAC               	incf	___xxtofl@arg+2,f
  3945  03A6  1903               	skipnz
  3946  03A7  0AAD               	incf	___xxtofl@arg+3,f
  3947  03A8  2BB1               	goto	l988
  3948  03A9                     l2179:	
  3949  03A9  0823               	movf	___xxtofl@val+3,w
  3950  03AA  00AD               	movwf	___xxtofl@arg+3
  3951  03AB  0822               	movf	___xxtofl@val+2,w
  3952  03AC  00AC               	movwf	___xxtofl@arg+2
  3953  03AD  0821               	movf	___xxtofl@val+1,w
  3954  03AE  00AB               	movwf	___xxtofl@arg+1
  3955  03AF  0820               	movf	___xxtofl@val,w
  3956  03B0  00AA               	movwf	___xxtofl@arg
  3957  03B1                     l988:	
  3958  03B1  0823               	movf	___xxtofl@val+3,w
  3959  03B2  0422               	iorwf	___xxtofl@val+2,w
  3960  03B3  0421               	iorwf	___xxtofl@val+1,w
  3961  03B4  0420               	iorwf	___xxtofl@val,w
  3962  03B5  1D03               	skipz
  3963  03B6  2BB8               	goto	u2071
  3964  03B7  2BB9               	goto	u2070
  3965  03B8                     u2071:	
  3966  03B8  2BC2               	goto	l2185
  3967  03B9                     u2070:	
  3968  03B9                     l2181:	
  3969  03B9  3000               	movlw	0
  3970  03BA  00A3               	movwf	?___xxtofl+3
  3971  03BB  3000               	movlw	0
  3972  03BC  00A2               	movwf	?___xxtofl+2
  3973  03BD  3000               	movlw	0
  3974  03BE  00A1               	movwf	?___xxtofl+1
  3975  03BF  3000               	movlw	0
  3976  03C0  00A0               	movwf	?___xxtofl
  3977  03C1  2C48               	goto	l990
  3978  03C2                     l2185:	
  3979  03C2  3096               	movlw	150
  3980  03C3  00A4               	movwf	??___xxtofl
  3981  03C4  0824               	movf	??___xxtofl,w
  3982  03C5  00A9               	movwf	___xxtofl@exp
  3983  03C6  2BD4               	goto	l2189
  3984  03C7                     l2187:	
  3985  03C7  3001               	movlw	1
  3986  03C8  00A4               	movwf	??___xxtofl
  3987  03C9  0824               	movf	??___xxtofl,w
  3988  03CA  07A9               	addwf	___xxtofl@exp,f
  3989  03CB  3001               	movlw	1
  3990  03CC                     u2085:	
  3991  03CC  1003               	clrc
  3992  03CD  0CAD               	rrf	___xxtofl@arg+3,f
  3993  03CE  0CAC               	rrf	___xxtofl@arg+2,f
  3994  03CF  0CAB               	rrf	___xxtofl@arg+1,f
  3995  03D0  0CAA               	rrf	___xxtofl@arg,f
  3996  03D1  3EFF               	addlw	-1
  3997  03D2  1D03               	skipz
  3998  03D3  2BCC               	goto	u2085
  3999  03D4                     l2189:	
  4000  03D4  30FE               	movlw	254
  4001  03D5  052D               	andwf	___xxtofl@arg+3,w
  4002  03D6  1D03               	btfss	3,2
  4003  03D7  2BD9               	goto	u2091
  4004  03D8  2BDA               	goto	u2090
  4005  03D9                     u2091:	
  4006  03D9  2BC7               	goto	l2187
  4007  03DA                     u2090:	
  4008  03DA  2BF6               	goto	l994
  4009  03DB                     l2191:	
  4010  03DB  3001               	movlw	1
  4011  03DC  00A4               	movwf	??___xxtofl
  4012  03DD  0824               	movf	??___xxtofl,w
  4013  03DE  07A9               	addwf	___xxtofl@exp,f
  4014  03DF                     l2193:	
  4015  03DF  3001               	movlw	1
  4016  03E0  07AA               	addwf	___xxtofl@arg,f
  4017  03E1  3000               	movlw	0
  4018  03E2  1803               	skipnc
  4019  03E3  3001               	movlw	1
  4020  03E4  07AB               	addwf	___xxtofl@arg+1,f
  4021  03E5  3000               	movlw	0
  4022  03E6  1803               	skipnc
  4023  03E7  3001               	movlw	1
  4024  03E8  07AC               	addwf	___xxtofl@arg+2,f
  4025  03E9  3000               	movlw	0
  4026  03EA  1803               	skipnc
  4027  03EB  3001               	movlw	1
  4028  03EC  07AD               	addwf	___xxtofl@arg+3,f
  4029  03ED                     l2195:	
  4030  03ED  3001               	movlw	1
  4031  03EE                     u2105:	
  4032  03EE  1003               	clrc
  4033  03EF  0CAD               	rrf	___xxtofl@arg+3,f
  4034  03F0  0CAC               	rrf	___xxtofl@arg+2,f
  4035  03F1  0CAB               	rrf	___xxtofl@arg+1,f
  4036  03F2  0CAA               	rrf	___xxtofl@arg,f
  4037  03F3  3EFF               	addlw	-1
  4038  03F4  1D03               	skipz
  4039  03F5  2BEE               	goto	u2105
  4040  03F6                     l994:	
  4041  03F6  30FF               	movlw	255
  4042  03F7  052D               	andwf	___xxtofl@arg+3,w
  4043  03F8  1D03               	btfss	3,2
  4044  03F9  2BFB               	goto	u2111
  4045  03FA  2BFC               	goto	u2110
  4046  03FB                     u2111:	
  4047  03FB  2BDB               	goto	l2191
  4048  03FC                     u2110:	
  4049  03FC  2C08               	goto	l2199
  4050  03FD                     l2197:	
  4051  03FD  3001               	movlw	1
  4052  03FE  02A9               	subwf	___xxtofl@exp,f
  4053  03FF  3001               	movlw	1
  4054  0400  00A4               	movwf	??___xxtofl
  4055  0401                     u2125:	
  4056  0401  1003               	clrc
  4057  0402  0DAA               	rlf	___xxtofl@arg,f
  4058  0403  0DAB               	rlf	___xxtofl@arg+1,f
  4059  0404  0DAC               	rlf	___xxtofl@arg+2,f
  4060  0405  0DAD               	rlf	___xxtofl@arg+3,f
  4061  0406  0BA4               	decfsz	??___xxtofl,f
  4062  0407  2C01               	goto	u2125
  4063  0408                     l2199:	
  4064  0408  1BAC               	btfsc	___xxtofl@arg+2,7
  4065  0409  2C0B               	goto	u2131
  4066  040A  2C0C               	goto	u2130
  4067  040B                     u2131:	
  4068  040B  2C12               	goto	l1001
  4069  040C                     u2130:	
  4070  040C                     l2201:	
  4071  040C  3002               	movlw	2
  4072  040D  0229               	subwf	___xxtofl@exp,w
  4073  040E  1803               	skipnc
  4074  040F  2C11               	goto	u2141
  4075  0410  2C12               	goto	u2140
  4076  0411                     u2141:	
  4077  0411  2BFD               	goto	l2197
  4078  0412                     u2140:	
  4079  0412                     l1001:	
  4080  0412  1829               	btfsc	___xxtofl@exp,0
  4081  0413  2C15               	goto	u2151
  4082  0414  2C16               	goto	u2150
  4083  0415                     u2151:	
  4084  0415  2C1E               	goto	l1002
  4085  0416                     u2150:	
  4086  0416                     l2203:	
  4087  0416  30FF               	movlw	255
  4088  0417  05AA               	andwf	___xxtofl@arg,f
  4089  0418  30FF               	movlw	255
  4090  0419  05AB               	andwf	___xxtofl@arg+1,f
  4091  041A  307F               	movlw	127
  4092  041B  05AC               	andwf	___xxtofl@arg+2,f
  4093  041C  30FF               	movlw	255
  4094  041D  05AD               	andwf	___xxtofl@arg+3,f
  4095  041E                     l1002:	
  4096  041E  1003               	clrc
  4097  041F  0CA9               	rrf	___xxtofl@exp,f
  4098  0420                     l2205:	
  4099  0420  0829               	movf	___xxtofl@exp,w
  4100  0421  00A4               	movwf	??___xxtofl
  4101  0422  01A5               	clrf	??___xxtofl+1
  4102  0423  01A6               	clrf	??___xxtofl+2
  4103  0424  01A7               	clrf	??___xxtofl+3
  4104  0425  3018               	movlw	24
  4105  0426                     u2165:	
  4106  0426  1003               	clrc
  4107  0427  0DA4               	rlf	??___xxtofl,f
  4108  0428  0DA5               	rlf	??___xxtofl+1,f
  4109  0429  0DA6               	rlf	??___xxtofl+2,f
  4110  042A  0DA7               	rlf	??___xxtofl+3,f
  4111  042B                     u2160:	
  4112  042B  3EFF               	addlw	-1
  4113  042C  1D03               	skipz
  4114  042D  2C26               	goto	u2165
  4115  042E  0824               	movf	??___xxtofl,w
  4116  042F  04AA               	iorwf	___xxtofl@arg,f
  4117  0430  0825               	movf	??___xxtofl+1,w
  4118  0431  04AB               	iorwf	___xxtofl@arg+1,f
  4119  0432  0826               	movf	??___xxtofl+2,w
  4120  0433  04AC               	iorwf	___xxtofl@arg+2,f
  4121  0434  0827               	movf	??___xxtofl+3,w
  4122  0435  04AD               	iorwf	___xxtofl@arg+3,f
  4123  0436                     l2207:	
  4124  0436  0828               	movf	___xxtofl@sign,w
  4125  0437  1903               	btfsc	3,2
  4126  0438  2C3A               	goto	u2171
  4127  0439  2C3B               	goto	u2170
  4128  043A                     u2171:	
  4129  043A  2C40               	goto	l2213
  4130  043B                     u2170:	
  4131  043B                     l2209:	
  4132  043B  1FA3               	btfss	___xxtofl@val+3,7
  4133  043C  2C3E               	goto	u2181
  4134  043D  2C3F               	goto	u2180
  4135  043E                     u2181:	
  4136  043E  2C40               	goto	l2213
  4137  043F                     u2180:	
  4138  043F                     l2211:	
  4139  043F  17AD               	bsf	___xxtofl@arg+3,7
  4140  0440                     l2213:	
  4141  0440  082D               	movf	___xxtofl@arg+3,w
  4142  0441  00A3               	movwf	?___xxtofl+3
  4143  0442  082C               	movf	___xxtofl@arg+2,w
  4144  0443  00A2               	movwf	?___xxtofl+2
  4145  0444  082B               	movf	___xxtofl@arg+1,w
  4146  0445  00A1               	movwf	?___xxtofl+1
  4147  0446  082A               	movf	___xxtofl@arg,w
  4148  0447  00A0               	movwf	?___xxtofl
  4149  0448                     l990:	
  4150  0448  0008               	return
  4151  0449                     __end_of___xxtofl:	
  4152                           
  4153                           	psect	text25
  4154  0567                     __ptext25:	
  4155 ;; *************** function ___fltol *****************
  4156 ;; Defined at:
  4157 ;;		line 43 in file "C:\Program Files (x86)\Microchip\xc8\v2.10\pic\sources\c90\common\fltol.c"
  4158 ;; Parameters:    Size  Location     Type
  4159 ;;  f1              4   40[BANK0 ] unsigned char 
  4160 ;; Auto vars:     Size  Location     Type
  4161 ;;  exp1            1   50[BANK0 ] unsigned char 
  4162 ;;  sign1           1   49[BANK0 ] unsigned char 
  4163 ;; Return value:  Size  Location     Type
  4164 ;;                  4   40[BANK0 ] long 
  4165 ;; Registers used:
  4166 ;;		wreg, status,2, status,0
  4167 ;; Tracked objects:
  4168 ;;		On entry : 0/0
  4169 ;;		On exit  : 0/0
  4170 ;;		Unchanged: 0/0
  4171 ;; Data sizes:     COMMON   BANK0   BANK1   BANK3   BANK2
  4172 ;;      Params:         0       4       0       0       0
  4173 ;;      Locals:         0       2       0       0       0
  4174 ;;      Temps:          0       5       0       0       0
  4175 ;;      Totals:         0      11       0       0       0
  4176 ;;Total ram usage:       11 bytes
  4177 ;; Hardware stack levels used:    1
  4178 ;; Hardware stack levels required when called:    4
  4179 ;; This function calls:
  4180 ;;		Nothing
  4181 ;; This function is called by:
  4182 ;;		_Temp_Sensor_ADC_Read
  4183 ;; This function uses a non-reentrant model
  4184 ;;
  4185                           
  4186                           
  4187                           ;psect for function ___fltol
  4188  0567                     ___fltol:	
  4189  0567                     l1971:	
  4190                           ;incstack = 0
  4191                           ; Regs used in ___fltol: [wreg+status,2+status,0]
  4192                           
  4193  0567  1003               	clrc
  4194  0568  1283               	bcf	3,5	;RP0=0, select bank0
  4195  0569  1303               	bcf	3,6	;RP1=0, select bank0
  4196  056A  0D4A               	rlf	___fltol@f1+2,w
  4197  056B  0D4B               	rlf	___fltol@f1+3,w
  4198  056C  00CC               	movwf	??___fltol
  4199  056D  084C               	movf	??___fltol,w
  4200  056E  00D2               	movwf	___fltol@exp1
  4201  056F  0852               	movf	___fltol@exp1,w
  4202  0570  1D03               	btfss	3,2
  4203  0571  2D73               	goto	u1511
  4204  0572  2D74               	goto	u1510
  4205  0573                     u1511:	
  4206  0573  2D7D               	goto	l1977
  4207  0574                     u1510:	
  4208  0574                     l1973:	
  4209  0574  3000               	movlw	0
  4210  0575  00CB               	movwf	?___fltol+3
  4211  0576  3000               	movlw	0
  4212  0577  00CA               	movwf	?___fltol+2
  4213  0578  3000               	movlw	0
  4214  0579  00C9               	movwf	?___fltol+1
  4215  057A  3000               	movlw	0
  4216  057B  00C8               	movwf	?___fltol
  4217  057C  2DE2               	goto	l747
  4218  057D                     l1977:	
  4219  057D  0848               	movf	___fltol@f1,w
  4220  057E  00CC               	movwf	??___fltol
  4221  057F  0849               	movf	___fltol@f1+1,w
  4222  0580  00CD               	movwf	??___fltol+1
  4223  0581  084A               	movf	___fltol@f1+2,w
  4224  0582  00CE               	movwf	??___fltol+2
  4225  0583  084B               	movf	___fltol@f1+3,w
  4226  0584  00CF               	movwf	??___fltol+3
  4227  0585  301F               	movlw	31
  4228  0586                     u1525:	
  4229  0586  1003               	clrc
  4230  0587  0CCF               	rrf	??___fltol+3,f
  4231  0588  0CCE               	rrf	??___fltol+2,f
  4232  0589  0CCD               	rrf	??___fltol+1,f
  4233  058A  0CCC               	rrf	??___fltol,f
  4234  058B                     u1520:	
  4235  058B  3EFF               	addlw	-1
  4236  058C  1D03               	skipz
  4237  058D  2D86               	goto	u1525
  4238  058E  084C               	movf	??___fltol,w
  4239  058F  00D0               	movwf	??___fltol+4
  4240  0590  0850               	movf	??___fltol+4,w
  4241  0591  00D1               	movwf	___fltol@sign1
  4242  0592                     l1979:	
  4243  0592  17CA               	bsf	___fltol@f1+2,7
  4244  0593                     l1981:	
  4245  0593  30FF               	movlw	255
  4246  0594  05C8               	andwf	___fltol@f1,f
  4247  0595  30FF               	movlw	255
  4248  0596  05C9               	andwf	___fltol@f1+1,f
  4249  0597  30FF               	movlw	255
  4250  0598  05CA               	andwf	___fltol@f1+2,f
  4251  0599  3000               	movlw	0
  4252  059A  05CB               	andwf	___fltol@f1+3,f
  4253  059B                     l1983:	
  4254  059B  3096               	movlw	150
  4255  059C  02D2               	subwf	___fltol@exp1,f
  4256  059D                     l1985:	
  4257  059D  1FD2               	btfss	___fltol@exp1,7
  4258  059E  2DA0               	goto	u1531
  4259  059F  2DA1               	goto	u1530
  4260  05A0                     u1531:	
  4261  05A0  2DBB               	goto	l1995
  4262  05A1                     u1530:	
  4263  05A1                     l1987:	
  4264  05A1  0852               	movf	___fltol@exp1,w
  4265  05A2  3A80               	xorlw	128
  4266  05A3  3E97               	addlw	151
  4267  05A4  1803               	skipnc
  4268  05A5  2DA7               	goto	u1541
  4269  05A6  2DA8               	goto	u1540
  4270  05A7                     u1541:	
  4271  05A7  2DA9               	goto	l1993
  4272  05A8                     u1540:	
  4273  05A8  2D74               	goto	l1973
  4274  05A9                     l1993:	
  4275  05A9  3001               	movlw	1
  4276  05AA                     u1555:	
  4277  05AA  1003               	clrc
  4278  05AB  0CCB               	rrf	___fltol@f1+3,f
  4279  05AC  0CCA               	rrf	___fltol@f1+2,f
  4280  05AD  0CC9               	rrf	___fltol@f1+1,f
  4281  05AE  0CC8               	rrf	___fltol@f1,f
  4282  05AF  3EFF               	addlw	-1
  4283  05B0  1D03               	skipz
  4284  05B1  2DAA               	goto	u1555
  4285  05B2  3001               	movlw	1
  4286  05B3  00CC               	movwf	??___fltol
  4287  05B4  084C               	movf	??___fltol,w
  4288  05B5  07D2               	addwf	___fltol@exp1,f
  4289  05B6  1D03               	btfss	3,2
  4290  05B7  2DB9               	goto	u1561
  4291  05B8  2DBA               	goto	u1560
  4292  05B9                     u1561:	
  4293  05B9  2DA9               	goto	l1993
  4294  05BA                     u1560:	
  4295  05BA  2DD2               	goto	l2003
  4296  05BB                     l1995:	
  4297  05BB  3020               	movlw	32
  4298  05BC  0252               	subwf	___fltol@exp1,w
  4299  05BD  1C03               	skipc
  4300  05BE  2DC0               	goto	u1571
  4301  05BF  2DC1               	goto	u1570
  4302  05C0                     u1571:	
  4303  05C0  2DCD               	goto	l754
  4304  05C1                     u1570:	
  4305  05C1  2D74               	goto	l1973
  4306  05C2                     l2001:	
  4307  05C2  3001               	movlw	1
  4308  05C3  00CC               	movwf	??___fltol
  4309  05C4                     u1585:	
  4310  05C4  1003               	clrc
  4311  05C5  0DC8               	rlf	___fltol@f1,f
  4312  05C6  0DC9               	rlf	___fltol@f1+1,f
  4313  05C7  0DCA               	rlf	___fltol@f1+2,f
  4314  05C8  0DCB               	rlf	___fltol@f1+3,f
  4315  05C9  0BCC               	decfsz	??___fltol,f
  4316  05CA  2DC4               	goto	u1585
  4317  05CB  3001               	movlw	1
  4318  05CC  02D2               	subwf	___fltol@exp1,f
  4319  05CD                     l754:	
  4320  05CD  0852               	movf	___fltol@exp1,w
  4321  05CE  1D03               	btfss	3,2
  4322  05CF  2DD1               	goto	u1591
  4323  05D0  2DD2               	goto	u1590
  4324  05D1                     u1591:	
  4325  05D1  2DC2               	goto	l2001
  4326  05D2                     u1590:	
  4327  05D2                     l2003:	
  4328  05D2  0851               	movf	___fltol@sign1,w
  4329  05D3  1903               	btfsc	3,2
  4330  05D4  2DD6               	goto	u1601
  4331  05D5  2DD7               	goto	u1600
  4332  05D6                     u1601:	
  4333  05D6  2DE2               	goto	l757
  4334  05D7                     u1600:	
  4335  05D7                     l2005:	
  4336  05D7  09C8               	comf	___fltol@f1,f
  4337  05D8  09C9               	comf	___fltol@f1+1,f
  4338  05D9  09CA               	comf	___fltol@f1+2,f
  4339  05DA  09CB               	comf	___fltol@f1+3,f
  4340  05DB  0AC8               	incf	___fltol@f1,f
  4341  05DC  1903               	skipnz
  4342  05DD  0AC9               	incf	___fltol@f1+1,f
  4343  05DE  1903               	skipnz
  4344  05DF  0ACA               	incf	___fltol@f1+2,f
  4345  05E0  1903               	skipnz
  4346  05E1  0ACB               	incf	___fltol@f1+3,f
  4347  05E2                     l757:	
  4348  05E2                     l747:	
  4349  05E2  0008               	return
  4350  05E3                     __end_of___fltol:	
  4351                           
  4352                           	psect	text26
  4353  002C                     __ptext26:	
  4354 ;; *************** function ___flmul *****************
  4355 ;; Defined at:
  4356 ;;		line 8 in file "C:\Program Files (x86)\Microchip\xc8\v2.10\pic\sources\c90\common\sprcmul.c"
  4357 ;; Parameters:    Size  Location     Type
  4358 ;;  b               4   14[BANK0 ] long 
  4359 ;;  a               4   18[BANK0 ] long 
  4360 ;; Auto vars:     Size  Location     Type
  4361 ;;  prod            4   34[BANK0 ] struct .
  4362 ;;  grs             4   28[BANK0 ] unsigned long 
  4363 ;;  temp            2   38[BANK0 ] struct .
  4364 ;;  bexp            1   33[BANK0 ] unsigned char 
  4365 ;;  aexp            1   32[BANK0 ] unsigned char 
  4366 ;;  sign            1   27[BANK0 ] unsigned char 
  4367 ;; Return value:  Size  Location     Type
  4368 ;;                  4   14[BANK0 ] unsigned char 
  4369 ;; Registers used:
  4370 ;;		wreg, status,2, status,0, btemp+1, pclath, cstack
  4371 ;; Tracked objects:
  4372 ;;		On entry : 0/0
  4373 ;;		On exit  : 0/0
  4374 ;;		Unchanged: 0/0
  4375 ;; Data sizes:     COMMON   BANK0   BANK1   BANK3   BANK2
  4376 ;;      Params:         0       8       0       0       0
  4377 ;;      Locals:         0      13       0       0       0
  4378 ;;      Temps:          0       5       0       0       0
  4379 ;;      Totals:         0      26       0       0       0
  4380 ;;Total ram usage:       26 bytes
  4381 ;; Hardware stack levels used:    1
  4382 ;; Hardware stack levels required when called:    5
  4383 ;; This function calls:
  4384 ;;		__Umul8_16
  4385 ;; This function is called by:
  4386 ;;		_Temp_Sensor_ADC_Read
  4387 ;; This function uses a non-reentrant model
  4388 ;;
  4389                           
  4390                           
  4391                           ;psect for function ___flmul
  4392  002C                     ___flmul:	
  4393  002C                     l2033:	
  4394                           ;incstack = 0
  4395                           ; Regs used in ___flmul: [wreg+status,2+status,0+btemp+1+pclath+cstack]
  4396                           
  4397  002C  1283               	bcf	3,5	;RP0=0, select bank0
  4398  002D  1303               	bcf	3,6	;RP1=0, select bank0
  4399  002E  0831               	movf	___flmul@b+3,w
  4400  002F  3980               	andlw	128
  4401  0030  00B6               	movwf	??___flmul
  4402  0031  0836               	movf	??___flmul,w
  4403  0032  00BB               	movwf	___flmul@sign
  4404  0033                     l2035:	
  4405  0033  0831               	movf	___flmul@b+3,w
  4406  0034  00B6               	movwf	??___flmul
  4407  0035  0736               	addwf	??___flmul,w
  4408  0036  00B7               	movwf	??___flmul+1
  4409  0037  0837               	movf	??___flmul+1,w
  4410  0038  00C1               	movwf	___flmul@bexp
  4411  0039                     l2037:	
  4412  0039  1FB0               	btfss	___flmul@b+2,7
  4413  003A  283C               	goto	u1681
  4414  003B  283D               	goto	u1680
  4415  003C                     u1681:	
  4416  003C  283E               	goto	l2041
  4417  003D                     u1680:	
  4418  003D                     l2039:	
  4419  003D  1441               	bsf	___flmul@bexp,0
  4420  003E                     l2041:	
  4421  003E  0841               	movf	___flmul@bexp,w
  4422  003F  1903               	btfsc	3,2
  4423  0040  2842               	goto	u1691
  4424  0041  2843               	goto	u1690
  4425  0042                     u1691:	
  4426  0042  2852               	goto	l2049
  4427  0043                     u1690:	
  4428  0043                     l2043:	
  4429  0043  0A41               	incf	___flmul@bexp,w
  4430  0044  1D03               	btfss	3,2
  4431  0045  2847               	goto	u1701
  4432  0046  2848               	goto	u1700
  4433  0047                     u1701:	
  4434  0047  2850               	goto	l2047
  4435  0048                     u1700:	
  4436  0048                     l2045:	
  4437  0048  3000               	movlw	0
  4438  0049  00B1               	movwf	___flmul@b+3
  4439  004A  3000               	movlw	0
  4440  004B  00B0               	movwf	___flmul@b+2
  4441  004C  3000               	movlw	0
  4442  004D  00AF               	movwf	___flmul@b+1
  4443  004E  3000               	movlw	0
  4444  004F  00AE               	movwf	___flmul@b
  4445  0050                     l2047:	
  4446  0050  17B0               	bsf	___flmul@b+2,7
  4447  0051  285A               	goto	l2051
  4448  0052                     l2049:	
  4449  0052  3000               	movlw	0
  4450  0053  00B1               	movwf	___flmul@b+3
  4451  0054  3000               	movlw	0
  4452  0055  00B0               	movwf	___flmul@b+2
  4453  0056  3000               	movlw	0
  4454  0057  00AF               	movwf	___flmul@b+1
  4455  0058  3000               	movlw	0
  4456  0059  00AE               	movwf	___flmul@b
  4457  005A                     l2051:	
  4458  005A  0835               	movf	___flmul@a+3,w
  4459  005B  3980               	andlw	128
  4460  005C  00B6               	movwf	??___flmul
  4461  005D  0836               	movf	??___flmul,w
  4462  005E  06BB               	xorwf	___flmul@sign,f
  4463  005F                     l2053:	
  4464  005F  0835               	movf	___flmul@a+3,w
  4465  0060  00B6               	movwf	??___flmul
  4466  0061  0736               	addwf	??___flmul,w
  4467  0062  00B7               	movwf	??___flmul+1
  4468  0063  0837               	movf	??___flmul+1,w
  4469  0064  00C0               	movwf	___flmul@aexp
  4470  0065                     l2055:	
  4471  0065  1FB4               	btfss	___flmul@a+2,7
  4472  0066  2868               	goto	u1711
  4473  0067  2869               	goto	u1710
  4474  0068                     u1711:	
  4475  0068  286A               	goto	l2059
  4476  0069                     u1710:	
  4477  0069                     l2057:	
  4478  0069  1440               	bsf	___flmul@aexp,0
  4479  006A                     l2059:	
  4480  006A  0840               	movf	___flmul@aexp,w
  4481  006B  1903               	btfsc	3,2
  4482  006C  286E               	goto	u1721
  4483  006D  286F               	goto	u1720
  4484  006E                     u1721:	
  4485  006E  287E               	goto	l2067
  4486  006F                     u1720:	
  4487  006F                     l2061:	
  4488  006F  0A40               	incf	___flmul@aexp,w
  4489  0070  1D03               	btfss	3,2
  4490  0071  2873               	goto	u1731
  4491  0072  2874               	goto	u1730
  4492  0073                     u1731:	
  4493  0073  287C               	goto	l2065
  4494  0074                     u1730:	
  4495  0074                     l2063:	
  4496  0074  3000               	movlw	0
  4497  0075  00B5               	movwf	___flmul@a+3
  4498  0076  3000               	movlw	0
  4499  0077  00B4               	movwf	___flmul@a+2
  4500  0078  3000               	movlw	0
  4501  0079  00B3               	movwf	___flmul@a+1
  4502  007A  3000               	movlw	0
  4503  007B  00B2               	movwf	___flmul@a
  4504  007C                     l2065:	
  4505  007C  17B4               	bsf	___flmul@a+2,7
  4506  007D  2886               	goto	l2069
  4507  007E                     l2067:	
  4508  007E  3000               	movlw	0
  4509  007F  00B5               	movwf	___flmul@a+3
  4510  0080  3000               	movlw	0
  4511  0081  00B4               	movwf	___flmul@a+2
  4512  0082  3000               	movlw	0
  4513  0083  00B3               	movwf	___flmul@a+1
  4514  0084  3000               	movlw	0
  4515  0085  00B2               	movwf	___flmul@a
  4516  0086                     l2069:	
  4517  0086  0840               	movf	___flmul@aexp,w
  4518  0087  1903               	btfsc	3,2
  4519  0088  288A               	goto	u1741
  4520  0089  288B               	goto	u1740
  4521  008A                     u1741:	
  4522  008A  2890               	goto	l2073
  4523  008B                     u1740:	
  4524  008B                     l2071:	
  4525  008B  0841               	movf	___flmul@bexp,w
  4526  008C  1D03               	btfss	3,2
  4527  008D  288F               	goto	u1751
  4528  008E  2890               	goto	u1750
  4529  008F                     u1751:	
  4530  008F  2899               	goto	l2077
  4531  0090                     u1750:	
  4532  0090                     l2073:	
  4533  0090  3000               	movlw	0
  4534  0091  00B1               	movwf	?___flmul+3
  4535  0092  3000               	movlw	0
  4536  0093  00B0               	movwf	?___flmul+2
  4537  0094  3000               	movlw	0
  4538  0095  00AF               	movwf	?___flmul+1
  4539  0096  3000               	movlw	0
  4540  0097  00AE               	movwf	?___flmul
  4541  0098  2B8C               	goto	l950
  4542  0099                     l2077:	
  4543  0099  082E               	movf	___flmul@b,w
  4544  009A  00B6               	movwf	??___flmul
  4545  009B  0836               	movf	??___flmul,w
  4546  009C  00A0               	movwf	__Umul8_16@multiplicand
  4547  009D  0834               	movf	___flmul@a+2,w
  4548  009E  120A  158A  25B4  120A  118A  	fcall	__Umul8_16
  4549  00A3  1283               	bcf	3,5	;RP0=0, select bank0
  4550  00A4  1303               	bcf	3,6	;RP1=0, select bank0
  4551  00A5  0821               	movf	?__Umul8_16+1,w
  4552  00A6  00C7               	movwf	___flmul@temp+1
  4553  00A7  0820               	movf	?__Umul8_16,w
  4554  00A8  00C6               	movwf	___flmul@temp
  4555  00A9                     l2079:	
  4556  00A9  0846               	movf	___flmul@temp,w
  4557  00AA  00B6               	movwf	??___flmul
  4558  00AB  01B7               	clrf	??___flmul+1
  4559  00AC  01B8               	clrf	??___flmul+2
  4560  00AD  01B9               	clrf	??___flmul+3
  4561  00AE  0839               	movf	??___flmul+3,w
  4562  00AF  00BF               	movwf	___flmul@grs+3
  4563  00B0  0838               	movf	??___flmul+2,w
  4564  00B1  00BE               	movwf	___flmul@grs+2
  4565  00B2  0837               	movf	??___flmul+1,w
  4566  00B3  00BD               	movwf	___flmul@grs+1
  4567  00B4  0836               	movf	??___flmul,w
  4568  00B5  00BC               	movwf	___flmul@grs
  4569  00B6                     l2081:	
  4570  00B6  0847               	movf	___flmul@temp+1,w
  4571  00B7  00B6               	movwf	??___flmul
  4572  00B8  01B7               	clrf	??___flmul+1
  4573  00B9  01B8               	clrf	??___flmul+2
  4574  00BA  01B9               	clrf	??___flmul+3
  4575  00BB  0839               	movf	??___flmul+3,w
  4576  00BC  00C5               	movwf	___flmul@prod+3
  4577  00BD  0838               	movf	??___flmul+2,w
  4578  00BE  00C4               	movwf	___flmul@prod+2
  4579  00BF  0837               	movf	??___flmul+1,w
  4580  00C0  00C3               	movwf	___flmul@prod+1
  4581  00C1  0836               	movf	??___flmul,w
  4582  00C2  00C2               	movwf	___flmul@prod
  4583  00C3  082F               	movf	___flmul@b+1,w
  4584  00C4  00B6               	movwf	??___flmul
  4585  00C5  0836               	movf	??___flmul,w
  4586  00C6  00A0               	movwf	__Umul8_16@multiplicand
  4587  00C7  0833               	movf	___flmul@a+1,w
  4588  00C8  120A  158A  25B4  120A  118A  	fcall	__Umul8_16
  4589  00CD  1283               	bcf	3,5	;RP0=0, select bank0
  4590  00CE  1303               	bcf	3,6	;RP1=0, select bank0
  4591  00CF  0821               	movf	?__Umul8_16+1,w
  4592  00D0  00C7               	movwf	___flmul@temp+1
  4593  00D1  0820               	movf	?__Umul8_16,w
  4594  00D2  00C6               	movwf	___flmul@temp
  4595  00D3                     l2083:	
  4596  00D3  0846               	movf	___flmul@temp,w
  4597  00D4  00B6               	movwf	??___flmul
  4598  00D5  01B7               	clrf	??___flmul+1
  4599  00D6  01B8               	clrf	??___flmul+2
  4600  00D7  01B9               	clrf	??___flmul+3
  4601  00D8  0836               	movf	??___flmul,w
  4602  00D9  07BC               	addwf	___flmul@grs,f
  4603  00DA  0837               	movf	??___flmul+1,w
  4604  00DB  1103               	clrz
  4605  00DC  1803               	skipnc
  4606  00DD  3E01               	addlw	1
  4607  00DE  1903               	skipnz
  4608  00DF  28E1               	goto	u1761
  4609  00E0  07BD               	addwf	___flmul@grs+1,f
  4610  00E1                     u1761:	
  4611  00E1  0838               	movf	??___flmul+2,w
  4612  00E2  1103               	clrz
  4613  00E3  1803               	skipnc
  4614  00E4  3E01               	addlw	1
  4615  00E5  1903               	skipnz
  4616  00E6  28E8               	goto	u1762
  4617  00E7  07BE               	addwf	___flmul@grs+2,f
  4618  00E8                     u1762:	
  4619  00E8  0839               	movf	??___flmul+3,w
  4620  00E9  1103               	clrz
  4621  00EA  1803               	skipnc
  4622  00EB  3E01               	addlw	1
  4623  00EC  1903               	skipnz
  4624  00ED  28EF               	goto	u1763
  4625  00EE  07BF               	addwf	___flmul@grs+3,f
  4626  00EF                     u1763:	
  4627  00EF                     l2085:	
  4628  00EF  0847               	movf	___flmul@temp+1,w
  4629  00F0  00B6               	movwf	??___flmul
  4630  00F1  01B7               	clrf	??___flmul+1
  4631  00F2  01B8               	clrf	??___flmul+2
  4632  00F3  01B9               	clrf	??___flmul+3
  4633  00F4  0836               	movf	??___flmul,w
  4634  00F5  07C2               	addwf	___flmul@prod,f
  4635  00F6  0837               	movf	??___flmul+1,w
  4636  00F7  1103               	clrz
  4637  00F8  1803               	skipnc
  4638  00F9  3E01               	addlw	1
  4639  00FA  1903               	skipnz
  4640  00FB  28FD               	goto	u1771
  4641  00FC  07C3               	addwf	___flmul@prod+1,f
  4642  00FD                     u1771:	
  4643  00FD  0838               	movf	??___flmul+2,w
  4644  00FE  1103               	clrz
  4645  00FF  1803               	skipnc
  4646  0100  3E01               	addlw	1
  4647  0101  1903               	skipnz
  4648  0102  2904               	goto	u1772
  4649  0103  07C4               	addwf	___flmul@prod+2,f
  4650  0104                     u1772:	
  4651  0104  0839               	movf	??___flmul+3,w
  4652  0105  1103               	clrz
  4653  0106  1803               	skipnc
  4654  0107  3E01               	addlw	1
  4655  0108  1903               	skipnz
  4656  0109  290B               	goto	u1773
  4657  010A  07C5               	addwf	___flmul@prod+3,f
  4658  010B                     u1773:	
  4659  010B  0830               	movf	___flmul@b+2,w
  4660  010C  00B6               	movwf	??___flmul
  4661  010D  0836               	movf	??___flmul,w
  4662  010E  00A0               	movwf	__Umul8_16@multiplicand
  4663  010F  0832               	movf	___flmul@a,w
  4664  0110  120A  158A  25B4  120A  118A  	fcall	__Umul8_16
  4665  0115  1283               	bcf	3,5	;RP0=0, select bank0
  4666  0116  1303               	bcf	3,6	;RP1=0, select bank0
  4667  0117  0821               	movf	?__Umul8_16+1,w
  4668  0118  00C7               	movwf	___flmul@temp+1
  4669  0119  0820               	movf	?__Umul8_16,w
  4670  011A  00C6               	movwf	___flmul@temp
  4671  011B                     l2087:	
  4672  011B  0846               	movf	___flmul@temp,w
  4673  011C  00B6               	movwf	??___flmul
  4674  011D  01B7               	clrf	??___flmul+1
  4675  011E  01B8               	clrf	??___flmul+2
  4676  011F  01B9               	clrf	??___flmul+3
  4677  0120  0836               	movf	??___flmul,w
  4678  0121  07BC               	addwf	___flmul@grs,f
  4679  0122  0837               	movf	??___flmul+1,w
  4680  0123  1103               	clrz
  4681  0124  1803               	skipnc
  4682  0125  3E01               	addlw	1
  4683  0126  1903               	skipnz
  4684  0127  2929               	goto	u1781
  4685  0128  07BD               	addwf	___flmul@grs+1,f
  4686  0129                     u1781:	
  4687  0129  0838               	movf	??___flmul+2,w
  4688  012A  1103               	clrz
  4689  012B  1803               	skipnc
  4690  012C  3E01               	addlw	1
  4691  012D  1903               	skipnz
  4692  012E  2930               	goto	u1782
  4693  012F  07BE               	addwf	___flmul@grs+2,f
  4694  0130                     u1782:	
  4695  0130  0839               	movf	??___flmul+3,w
  4696  0131  1103               	clrz
  4697  0132  1803               	skipnc
  4698  0133  3E01               	addlw	1
  4699  0134  1903               	skipnz
  4700  0135  2937               	goto	u1783
  4701  0136  07BF               	addwf	___flmul@grs+3,f
  4702  0137                     u1783:	
  4703  0137                     l2089:	
  4704  0137  0847               	movf	___flmul@temp+1,w
  4705  0138  00B6               	movwf	??___flmul
  4706  0139  01B7               	clrf	??___flmul+1
  4707  013A  01B8               	clrf	??___flmul+2
  4708  013B  01B9               	clrf	??___flmul+3
  4709  013C  0836               	movf	??___flmul,w
  4710  013D  07C2               	addwf	___flmul@prod,f
  4711  013E  0837               	movf	??___flmul+1,w
  4712  013F  1103               	clrz
  4713  0140  1803               	skipnc
  4714  0141  3E01               	addlw	1
  4715  0142  1903               	skipnz
  4716  0143  2945               	goto	u1791
  4717  0144  07C3               	addwf	___flmul@prod+1,f
  4718  0145                     u1791:	
  4719  0145  0838               	movf	??___flmul+2,w
  4720  0146  1103               	clrz
  4721  0147  1803               	skipnc
  4722  0148  3E01               	addlw	1
  4723  0149  1903               	skipnz
  4724  014A  294C               	goto	u1792
  4725  014B  07C4               	addwf	___flmul@prod+2,f
  4726  014C                     u1792:	
  4727  014C  0839               	movf	??___flmul+3,w
  4728  014D  1103               	clrz
  4729  014E  1803               	skipnc
  4730  014F  3E01               	addlw	1
  4731  0150  1903               	skipnz
  4732  0151  2953               	goto	u1793
  4733  0152  07C5               	addwf	___flmul@prod+3,f
  4734  0153                     u1793:	
  4735  0153                     l2091:	
  4736  0153  3008               	movlw	8
  4737  0154  00B6               	movwf	??___flmul
  4738  0155                     u1805:	
  4739  0155  1003               	clrc
  4740  0156  0DBC               	rlf	___flmul@grs,f
  4741  0157  0DBD               	rlf	___flmul@grs+1,f
  4742  0158  0DBE               	rlf	___flmul@grs+2,f
  4743  0159  0DBF               	rlf	___flmul@grs+3,f
  4744  015A  0BB6               	decfsz	??___flmul,f
  4745  015B  2955               	goto	u1805
  4746  015C                     l2093:	
  4747  015C  082F               	movf	___flmul@b+1,w
  4748  015D  00B6               	movwf	??___flmul
  4749  015E  0836               	movf	??___flmul,w
  4750  015F  00A0               	movwf	__Umul8_16@multiplicand
  4751  0160  0832               	movf	___flmul@a,w
  4752  0161  120A  158A  25B4  120A  118A  	fcall	__Umul8_16
  4753  0166  1283               	bcf	3,5	;RP0=0, select bank0
  4754  0167  1303               	bcf	3,6	;RP1=0, select bank0
  4755  0168  0821               	movf	?__Umul8_16+1,w
  4756  0169  00C7               	movwf	___flmul@temp+1
  4757  016A  0820               	movf	?__Umul8_16,w
  4758  016B  00C6               	movwf	___flmul@temp
  4759  016C                     l2095:	
  4760  016C  0846               	movf	___flmul@temp,w
  4761  016D  00B6               	movwf	??___flmul
  4762  016E  0847               	movf	___flmul@temp+1,w
  4763  016F  00B7               	movwf	??___flmul+1
  4764  0170  01B8               	clrf	??___flmul+2
  4765  0171  01B9               	clrf	??___flmul+3
  4766  0172  0836               	movf	??___flmul,w
  4767  0173  07BC               	addwf	___flmul@grs,f
  4768  0174  0837               	movf	??___flmul+1,w
  4769  0175  1103               	clrz
  4770  0176  1803               	skipnc
  4771  0177  3E01               	addlw	1
  4772  0178  1903               	skipnz
  4773  0179  297B               	goto	u1811
  4774  017A  07BD               	addwf	___flmul@grs+1,f
  4775  017B                     u1811:	
  4776  017B  0838               	movf	??___flmul+2,w
  4777  017C  1103               	clrz
  4778  017D  1803               	skipnc
  4779  017E  3E01               	addlw	1
  4780  017F  1903               	skipnz
  4781  0180  2982               	goto	u1812
  4782  0181  07BE               	addwf	___flmul@grs+2,f
  4783  0182                     u1812:	
  4784  0182  0839               	movf	??___flmul+3,w
  4785  0183  1103               	clrz
  4786  0184  1803               	skipnc
  4787  0185  3E01               	addlw	1
  4788  0186  1903               	skipnz
  4789  0187  2989               	goto	u1813
  4790  0188  07BF               	addwf	___flmul@grs+3,f
  4791  0189                     u1813:	
  4792  0189                     l2097:	
  4793  0189  082E               	movf	___flmul@b,w
  4794  018A  00B6               	movwf	??___flmul
  4795  018B  0836               	movf	??___flmul,w
  4796  018C  00A0               	movwf	__Umul8_16@multiplicand
  4797  018D  0833               	movf	___flmul@a+1,w
  4798  018E  120A  158A  25B4  120A  118A  	fcall	__Umul8_16
  4799  0193  1283               	bcf	3,5	;RP0=0, select bank0
  4800  0194  1303               	bcf	3,6	;RP1=0, select bank0
  4801  0195  0821               	movf	?__Umul8_16+1,w
  4802  0196  00C7               	movwf	___flmul@temp+1
  4803  0197  0820               	movf	?__Umul8_16,w
  4804  0198  00C6               	movwf	___flmul@temp
  4805  0199                     l2099:	
  4806  0199  0846               	movf	___flmul@temp,w
  4807  019A  00B6               	movwf	??___flmul
  4808  019B  0847               	movf	___flmul@temp+1,w
  4809  019C  00B7               	movwf	??___flmul+1
  4810  019D  01B8               	clrf	??___flmul+2
  4811  019E  01B9               	clrf	??___flmul+3
  4812  019F  0836               	movf	??___flmul,w
  4813  01A0  07BC               	addwf	___flmul@grs,f
  4814  01A1  0837               	movf	??___flmul+1,w
  4815  01A2  1103               	clrz
  4816  01A3  1803               	skipnc
  4817  01A4  3E01               	addlw	1
  4818  01A5  1903               	skipnz
  4819  01A6  29A8               	goto	u1821
  4820  01A7  07BD               	addwf	___flmul@grs+1,f
  4821  01A8                     u1821:	
  4822  01A8  0838               	movf	??___flmul+2,w
  4823  01A9  1103               	clrz
  4824  01AA  1803               	skipnc
  4825  01AB  3E01               	addlw	1
  4826  01AC  1903               	skipnz
  4827  01AD  29AF               	goto	u1822
  4828  01AE  07BE               	addwf	___flmul@grs+2,f
  4829  01AF                     u1822:	
  4830  01AF  0839               	movf	??___flmul+3,w
  4831  01B0  1103               	clrz
  4832  01B1  1803               	skipnc
  4833  01B2  3E01               	addlw	1
  4834  01B3  1903               	skipnz
  4835  01B4  29B6               	goto	u1823
  4836  01B5  07BF               	addwf	___flmul@grs+3,f
  4837  01B6                     u1823:	
  4838  01B6                     l2101:	
  4839  01B6  3008               	movlw	8
  4840  01B7  00B6               	movwf	??___flmul
  4841  01B8                     u1835:	
  4842  01B8  1003               	clrc
  4843  01B9  0DBC               	rlf	___flmul@grs,f
  4844  01BA  0DBD               	rlf	___flmul@grs+1,f
  4845  01BB  0DBE               	rlf	___flmul@grs+2,f
  4846  01BC  0DBF               	rlf	___flmul@grs+3,f
  4847  01BD  0BB6               	decfsz	??___flmul,f
  4848  01BE  29B8               	goto	u1835
  4849  01BF  082E               	movf	___flmul@b,w
  4850  01C0  00B6               	movwf	??___flmul
  4851  01C1  0836               	movf	??___flmul,w
  4852  01C2  00A0               	movwf	__Umul8_16@multiplicand
  4853  01C3  0832               	movf	___flmul@a,w
  4854  01C4  120A  158A  25B4  120A  118A  	fcall	__Umul8_16
  4855  01C9  1283               	bcf	3,5	;RP0=0, select bank0
  4856  01CA  1303               	bcf	3,6	;RP1=0, select bank0
  4857  01CB  0821               	movf	?__Umul8_16+1,w
  4858  01CC  00C7               	movwf	___flmul@temp+1
  4859  01CD  0820               	movf	?__Umul8_16,w
  4860  01CE  00C6               	movwf	___flmul@temp
  4861  01CF                     l2103:	
  4862  01CF  0846               	movf	___flmul@temp,w
  4863  01D0  00B6               	movwf	??___flmul
  4864  01D1  0847               	movf	___flmul@temp+1,w
  4865  01D2  00B7               	movwf	??___flmul+1
  4866  01D3  01B8               	clrf	??___flmul+2
  4867  01D4  01B9               	clrf	??___flmul+3
  4868  01D5  0836               	movf	??___flmul,w
  4869  01D6  07BC               	addwf	___flmul@grs,f
  4870  01D7  0837               	movf	??___flmul+1,w
  4871  01D8  1103               	clrz
  4872  01D9  1803               	skipnc
  4873  01DA  3E01               	addlw	1
  4874  01DB  1903               	skipnz
  4875  01DC  29DE               	goto	u1841
  4876  01DD  07BD               	addwf	___flmul@grs+1,f
  4877  01DE                     u1841:	
  4878  01DE  0838               	movf	??___flmul+2,w
  4879  01DF  1103               	clrz
  4880  01E0  1803               	skipnc
  4881  01E1  3E01               	addlw	1
  4882  01E2  1903               	skipnz
  4883  01E3  29E5               	goto	u1842
  4884  01E4  07BE               	addwf	___flmul@grs+2,f
  4885  01E5                     u1842:	
  4886  01E5  0839               	movf	??___flmul+3,w
  4887  01E6  1103               	clrz
  4888  01E7  1803               	skipnc
  4889  01E8  3E01               	addlw	1
  4890  01E9  1903               	skipnz
  4891  01EA  29EC               	goto	u1843
  4892  01EB  07BF               	addwf	___flmul@grs+3,f
  4893  01EC                     u1843:	
  4894  01EC                     l2105:	
  4895  01EC  082F               	movf	___flmul@b+1,w
  4896  01ED  00B6               	movwf	??___flmul
  4897  01EE  0836               	movf	??___flmul,w
  4898  01EF  00A0               	movwf	__Umul8_16@multiplicand
  4899  01F0  0834               	movf	___flmul@a+2,w
  4900  01F1  120A  158A  25B4  120A  118A  	fcall	__Umul8_16
  4901  01F6  1283               	bcf	3,5	;RP0=0, select bank0
  4902  01F7  1303               	bcf	3,6	;RP1=0, select bank0
  4903  01F8  0821               	movf	?__Umul8_16+1,w
  4904  01F9  00C7               	movwf	___flmul@temp+1
  4905  01FA  0820               	movf	?__Umul8_16,w
  4906  01FB  00C6               	movwf	___flmul@temp
  4907  01FC  0846               	movf	___flmul@temp,w
  4908  01FD  00B6               	movwf	??___flmul
  4909  01FE  0847               	movf	___flmul@temp+1,w
  4910  01FF  00B7               	movwf	??___flmul+1
  4911  0200  01B8               	clrf	??___flmul+2
  4912  0201  01B9               	clrf	??___flmul+3
  4913  0202  0836               	movf	??___flmul,w
  4914  0203  07C2               	addwf	___flmul@prod,f
  4915  0204  0837               	movf	??___flmul+1,w
  4916  0205  1103               	clrz
  4917  0206  1803               	skipnc
  4918  0207  3E01               	addlw	1
  4919  0208  1903               	skipnz
  4920  0209  2A0B               	goto	u1851
  4921  020A  07C3               	addwf	___flmul@prod+1,f
  4922  020B                     u1851:	
  4923  020B  0838               	movf	??___flmul+2,w
  4924  020C  1103               	clrz
  4925  020D  1803               	skipnc
  4926  020E  3E01               	addlw	1
  4927  020F  1903               	skipnz
  4928  0210  2A12               	goto	u1852
  4929  0211  07C4               	addwf	___flmul@prod+2,f
  4930  0212                     u1852:	
  4931  0212  0839               	movf	??___flmul+3,w
  4932  0213  1103               	clrz
  4933  0214  1803               	skipnc
  4934  0215  3E01               	addlw	1
  4935  0216  1903               	skipnz
  4936  0217  2A19               	goto	u1853
  4937  0218  07C5               	addwf	___flmul@prod+3,f
  4938  0219                     u1853:	
  4939  0219                     l2107:	
  4940  0219  0830               	movf	___flmul@b+2,w
  4941  021A  00B6               	movwf	??___flmul
  4942  021B  0836               	movf	??___flmul,w
  4943  021C  00A0               	movwf	__Umul8_16@multiplicand
  4944  021D  0833               	movf	___flmul@a+1,w
  4945  021E  120A  158A  25B4  120A  118A  	fcall	__Umul8_16
  4946  0223  1283               	bcf	3,5	;RP0=0, select bank0
  4947  0224  1303               	bcf	3,6	;RP1=0, select bank0
  4948  0225  0821               	movf	?__Umul8_16+1,w
  4949  0226  00C7               	movwf	___flmul@temp+1
  4950  0227  0820               	movf	?__Umul8_16,w
  4951  0228  00C6               	movwf	___flmul@temp
  4952  0229                     l2109:	
  4953  0229  0846               	movf	___flmul@temp,w
  4954  022A  00B6               	movwf	??___flmul
  4955  022B  0847               	movf	___flmul@temp+1,w
  4956  022C  00B7               	movwf	??___flmul+1
  4957  022D  01B8               	clrf	??___flmul+2
  4958  022E  01B9               	clrf	??___flmul+3
  4959  022F  0836               	movf	??___flmul,w
  4960  0230  07C2               	addwf	___flmul@prod,f
  4961  0231  0837               	movf	??___flmul+1,w
  4962  0232  1103               	clrz
  4963  0233  1803               	skipnc
  4964  0234  3E01               	addlw	1
  4965  0235  1903               	skipnz
  4966  0236  2A38               	goto	u1861
  4967  0237  07C3               	addwf	___flmul@prod+1,f
  4968  0238                     u1861:	
  4969  0238  0838               	movf	??___flmul+2,w
  4970  0239  1103               	clrz
  4971  023A  1803               	skipnc
  4972  023B  3E01               	addlw	1
  4973  023C  1903               	skipnz
  4974  023D  2A3F               	goto	u1862
  4975  023E  07C4               	addwf	___flmul@prod+2,f
  4976  023F                     u1862:	
  4977  023F  0839               	movf	??___flmul+3,w
  4978  0240  1103               	clrz
  4979  0241  1803               	skipnc
  4980  0242  3E01               	addlw	1
  4981  0243  1903               	skipnz
  4982  0244  2A46               	goto	u1863
  4983  0245  07C5               	addwf	___flmul@prod+3,f
  4984  0246                     u1863:	
  4985  0246  0830               	movf	___flmul@b+2,w
  4986  0247  00B6               	movwf	??___flmul
  4987  0248  0836               	movf	??___flmul,w
  4988  0249  00A0               	movwf	__Umul8_16@multiplicand
  4989  024A  0834               	movf	___flmul@a+2,w
  4990  024B  120A  158A  25B4  120A  118A  	fcall	__Umul8_16
  4991  0250  1283               	bcf	3,5	;RP0=0, select bank0
  4992  0251  1303               	bcf	3,6	;RP1=0, select bank0
  4993  0252  0821               	movf	?__Umul8_16+1,w
  4994  0253  00C7               	movwf	___flmul@temp+1
  4995  0254  0820               	movf	?__Umul8_16,w
  4996  0255  00C6               	movwf	___flmul@temp
  4997  0256                     l2111:	
  4998  0256  0846               	movf	___flmul@temp,w
  4999  0257  00B6               	movwf	??___flmul
  5000  0258  0847               	movf	___flmul@temp+1,w
  5001  0259  00B7               	movwf	??___flmul+1
  5002  025A  01B8               	clrf	??___flmul+2
  5003  025B  01B9               	clrf	??___flmul+3
  5004  025C  3008               	movlw	8
  5005  025D                     u1875:	
  5006  025D  1003               	clrc
  5007  025E  0DB6               	rlf	??___flmul,f
  5008  025F  0DB7               	rlf	??___flmul+1,f
  5009  0260  0DB8               	rlf	??___flmul+2,f
  5010  0261  0DB9               	rlf	??___flmul+3,f
  5011  0262                     u1870:	
  5012  0262  3EFF               	addlw	-1
  5013  0263  1D03               	skipz
  5014  0264  2A5D               	goto	u1875
  5015  0265  0836               	movf	??___flmul,w
  5016  0266  07C2               	addwf	___flmul@prod,f
  5017  0267  0837               	movf	??___flmul+1,w
  5018  0268  1103               	clrz
  5019  0269  1803               	skipnc
  5020  026A  3E01               	addlw	1
  5021  026B  1903               	skipnz
  5022  026C  2A6E               	goto	u1881
  5023  026D  07C3               	addwf	___flmul@prod+1,f
  5024  026E                     u1881:	
  5025  026E  0838               	movf	??___flmul+2,w
  5026  026F  1103               	clrz
  5027  0270  1803               	skipnc
  5028  0271  3E01               	addlw	1
  5029  0272  1903               	skipnz
  5030  0273  2A75               	goto	u1882
  5031  0274  07C4               	addwf	___flmul@prod+2,f
  5032  0275                     u1882:	
  5033  0275  0839               	movf	??___flmul+3,w
  5034  0276  1103               	clrz
  5035  0277  1803               	skipnc
  5036  0278  3E01               	addlw	1
  5037  0279  1903               	skipnz
  5038  027A  2A7C               	goto	u1883
  5039  027B  07C5               	addwf	___flmul@prod+3,f
  5040  027C                     u1883:	
  5041  027C                     l2113:	
  5042  027C  083C               	movf	___flmul@grs,w
  5043  027D  00B6               	movwf	??___flmul
  5044  027E  083D               	movf	___flmul@grs+1,w
  5045  027F  00B7               	movwf	??___flmul+1
  5046  0280  083E               	movf	___flmul@grs+2,w
  5047  0281  00B8               	movwf	??___flmul+2
  5048  0282  083F               	movf	___flmul@grs+3,w
  5049  0283  00B9               	movwf	??___flmul+3
  5050  0284  3018               	movlw	24
  5051  0285                     u1895:	
  5052  0285  1003               	clrc
  5053  0286  0CB9               	rrf	??___flmul+3,f
  5054  0287  0CB8               	rrf	??___flmul+2,f
  5055  0288  0CB7               	rrf	??___flmul+1,f
  5056  0289  0CB6               	rrf	??___flmul,f
  5057  028A                     u1890:	
  5058  028A  3EFF               	addlw	-1
  5059  028B  1D03               	skipz
  5060  028C  2A85               	goto	u1895
  5061  028D  0836               	movf	??___flmul,w
  5062  028E  07C2               	addwf	___flmul@prod,f
  5063  028F  0837               	movf	??___flmul+1,w
  5064  0290  1103               	clrz
  5065  0291  1803               	skipnc
  5066  0292  3E01               	addlw	1
  5067  0293  1903               	skipnz
  5068  0294  2A96               	goto	u1901
  5069  0295  07C3               	addwf	___flmul@prod+1,f
  5070  0296                     u1901:	
  5071  0296  0838               	movf	??___flmul+2,w
  5072  0297  1103               	clrz
  5073  0298  1803               	skipnc
  5074  0299  3E01               	addlw	1
  5075  029A  1903               	skipnz
  5076  029B  2A9D               	goto	u1902
  5077  029C  07C4               	addwf	___flmul@prod+2,f
  5078  029D                     u1902:	
  5079  029D  0839               	movf	??___flmul+3,w
  5080  029E  1103               	clrz
  5081  029F  1803               	skipnc
  5082  02A0  3E01               	addlw	1
  5083  02A1  1903               	skipnz
  5084  02A2  2AA4               	goto	u1903
  5085  02A3  07C5               	addwf	___flmul@prod+3,f
  5086  02A4                     u1903:	
  5087  02A4                     l2115:	
  5088  02A4  3008               	movlw	8
  5089  02A5  00B6               	movwf	??___flmul
  5090  02A6                     u1915:	
  5091  02A6  1003               	clrc
  5092  02A7  0DBC               	rlf	___flmul@grs,f
  5093  02A8  0DBD               	rlf	___flmul@grs+1,f
  5094  02A9  0DBE               	rlf	___flmul@grs+2,f
  5095  02AA  0DBF               	rlf	___flmul@grs+3,f
  5096  02AB  0BB6               	decfsz	??___flmul,f
  5097  02AC  2AA6               	goto	u1915
  5098  02AD                     l2117:	
  5099  02AD  0841               	movf	___flmul@bexp,w
  5100  02AE  0740               	addwf	___flmul@aexp,w
  5101  02AF  00B6               	movwf	??___flmul
  5102  02B0  01B7               	clrf	??___flmul+1
  5103  02B1  0DB7               	rlf	??___flmul+1,f
  5104  02B2  0836               	movf	??___flmul,w
  5105  02B3  3E82               	addlw	130
  5106  02B4  00C6               	movwf	___flmul@temp
  5107  02B5  0837               	movf	??___flmul+1,w
  5108  02B6  1803               	skipnc
  5109  02B7  3E01               	addlw	1
  5110  02B8  3EFF               	addlw	255
  5111  02B9  00C7               	movwf	___flmul@temp+1
  5112  02BA  2AD8               	goto	l2129
  5113  02BB                     l2119:	
  5114  02BB  3001               	movlw	1
  5115  02BC  00B6               	movwf	??___flmul
  5116  02BD                     u1925:	
  5117  02BD  1003               	clrc
  5118  02BE  0DC2               	rlf	___flmul@prod,f
  5119  02BF  0DC3               	rlf	___flmul@prod+1,f
  5120  02C0  0DC4               	rlf	___flmul@prod+2,f
  5121  02C1  0DC5               	rlf	___flmul@prod+3,f
  5122  02C2  0BB6               	decfsz	??___flmul,f
  5123  02C3  2ABD               	goto	u1925
  5124  02C4                     l2121:	
  5125  02C4  1FBF               	btfss	___flmul@grs+3,7
  5126  02C5  2AC7               	goto	u1931
  5127  02C6  2AC8               	goto	u1930
  5128  02C7                     u1931:	
  5129  02C7  2AC9               	goto	l2125
  5130  02C8                     u1930:	
  5131  02C8                     l2123:	
  5132  02C8  1442               	bsf	___flmul@prod,0
  5133  02C9                     l2125:	
  5134  02C9  3001               	movlw	1
  5135  02CA  00B6               	movwf	??___flmul
  5136  02CB                     u1945:	
  5137  02CB  1003               	clrc
  5138  02CC  0DBC               	rlf	___flmul@grs,f
  5139  02CD  0DBD               	rlf	___flmul@grs+1,f
  5140  02CE  0DBE               	rlf	___flmul@grs+2,f
  5141  02CF  0DBF               	rlf	___flmul@grs+3,f
  5142  02D0  0BB6               	decfsz	??___flmul,f
  5143  02D1  2ACB               	goto	u1945
  5144  02D2                     l2127:	
  5145  02D2  30FF               	movlw	255
  5146  02D3  07C6               	addwf	___flmul@temp,f
  5147  02D4  1803               	skipnc
  5148  02D5  0AC7               	incf	___flmul@temp+1,f
  5149  02D6  30FF               	movlw	255
  5150  02D7  07C7               	addwf	___flmul@temp+1,f
  5151  02D8                     l2129:	
  5152  02D8  1FC4               	btfss	___flmul@prod+2,7
  5153  02D9  2ADB               	goto	u1951
  5154  02DA  2ADC               	goto	u1950
  5155  02DB                     u1951:	
  5156  02DB  2ABB               	goto	l2119
  5157  02DC                     u1950:	
  5158  02DC                     l2131:	
  5159  02DC  01C0               	clrf	___flmul@aexp
  5160  02DD                     l2133:	
  5161  02DD  1FBF               	btfss	___flmul@grs+3,7
  5162  02DE  2AE0               	goto	u1961
  5163  02DF  2AE1               	goto	u1960
  5164  02E0                     u1961:	
  5165  02E0  2AFD               	goto	l2141
  5166  02E1                     u1960:	
  5167  02E1                     l2135:	
  5168  02E1  30FF               	movlw	255
  5169  02E2  053C               	andwf	___flmul@grs,w
  5170  02E3  00B6               	movwf	??___flmul
  5171  02E4  30FF               	movlw	255
  5172  02E5  053D               	andwf	___flmul@grs+1,w
  5173  02E6  00B7               	movwf	??___flmul+1
  5174  02E7  30FF               	movlw	255
  5175  02E8  053E               	andwf	___flmul@grs+2,w
  5176  02E9  00B8               	movwf	??___flmul+2
  5177  02EA  307F               	movlw	127
  5178  02EB  053F               	andwf	___flmul@grs+3,w
  5179  02EC  00B9               	movwf	??___flmul+3
  5180  02ED  0839               	movf	??___flmul+3,w
  5181  02EE  0438               	iorwf	??___flmul+2,w
  5182  02EF  0437               	iorwf	??___flmul+1,w
  5183  02F0  0436               	iorwf	??___flmul,w
  5184  02F1  1903               	skipnz
  5185  02F2  2AF4               	goto	u1971
  5186  02F3  2AF5               	goto	u1970
  5187  02F4                     u1971:	
  5188  02F4  2AF8               	goto	l956
  5189  02F5                     u1970:	
  5190  02F5                     l2137:	
  5191  02F5  01C0               	clrf	___flmul@aexp
  5192  02F6  0AC0               	incf	___flmul@aexp,f
  5193  02F7  2AFD               	goto	l2141
  5194  02F8                     l956:	
  5195  02F8  1C42               	btfss	___flmul@prod,0
  5196  02F9  2AFB               	goto	u1981
  5197  02FA  2AFC               	goto	u1980
  5198  02FB                     u1981:	
  5199  02FB  2AFD               	goto	l2141
  5200  02FC                     u1980:	
  5201  02FC  2AF5               	goto	l2137
  5202  02FD                     l2141:	
  5203  02FD  0840               	movf	___flmul@aexp,w
  5204  02FE  1903               	btfsc	3,2
  5205  02FF  2B01               	goto	u1991
  5206  0300  2B02               	goto	u1990
  5207  0301                     u1991:	
  5208  0301  2B33               	goto	l2151
  5209  0302                     u1990:	
  5210  0302                     l2143:	
  5211  0302  3001               	movlw	1
  5212  0303  07C2               	addwf	___flmul@prod,f
  5213  0304  3000               	movlw	0
  5214  0305  1803               	skipnc
  5215  0306  3001               	movlw	1
  5216  0307  07C3               	addwf	___flmul@prod+1,f
  5217  0308  3000               	movlw	0
  5218  0309  1803               	skipnc
  5219  030A  3001               	movlw	1
  5220  030B  07C4               	addwf	___flmul@prod+2,f
  5221  030C  3000               	movlw	0
  5222  030D  1803               	skipnc
  5223  030E  3001               	movlw	1
  5224  030F  07C5               	addwf	___flmul@prod+3,f
  5225  0310                     l2145:	
  5226  0310  1C45               	btfss	___flmul@prod+3,0
  5227  0311  2B13               	goto	u2001
  5228  0312  2B14               	goto	u2000
  5229  0313                     u2001:	
  5230  0313  2B33               	goto	l2151
  5231  0314                     u2000:	
  5232  0314                     l2147:	
  5233  0314  0842               	movf	___flmul@prod,w
  5234  0315  00B6               	movwf	??___flmul
  5235  0316  0843               	movf	___flmul@prod+1,w
  5236  0317  00B7               	movwf	??___flmul+1
  5237  0318  0844               	movf	___flmul@prod+2,w
  5238  0319  00B8               	movwf	??___flmul+2
  5239  031A  0845               	movf	___flmul@prod+3,w
  5240  031B  00B9               	movwf	??___flmul+3
  5241  031C  3001               	movlw	1
  5242  031D  00BA               	movwf	??___flmul+4
  5243  031E                     u2015:	
  5244  031E  0D39               	rlf	??___flmul+3,w
  5245  031F  0CB9               	rrf	??___flmul+3,f
  5246  0320  0CB8               	rrf	??___flmul+2,f
  5247  0321  0CB7               	rrf	??___flmul+1,f
  5248  0322  0CB6               	rrf	??___flmul,f
  5249  0323                     u2010:	
  5250  0323  0BBA               	decfsz	??___flmul+4,f
  5251  0324  2B1E               	goto	u2015
  5252  0325  0839               	movf	??___flmul+3,w
  5253  0326  00C5               	movwf	___flmul@prod+3
  5254  0327  0838               	movf	??___flmul+2,w
  5255  0328  00C4               	movwf	___flmul@prod+2
  5256  0329  0837               	movf	??___flmul+1,w
  5257  032A  00C3               	movwf	___flmul@prod+1
  5258  032B  0836               	movf	??___flmul,w
  5259  032C  00C2               	movwf	___flmul@prod
  5260  032D                     l2149:	
  5261  032D  3001               	movlw	1
  5262  032E  07C6               	addwf	___flmul@temp,f
  5263  032F  1803               	skipnc
  5264  0330  0AC7               	incf	___flmul@temp+1,f
  5265  0331  3000               	movlw	0
  5266  0332  07C7               	addwf	___flmul@temp+1,f
  5267  0333                     l2151:	
  5268  0333  0847               	movf	___flmul@temp+1,w
  5269  0334  3A80               	xorlw	128
  5270  0335  00FF               	movwf	btemp+1
  5271  0336  3080               	movlw	128
  5272  0337  027F               	subwf	btemp+1,w
  5273  0338  1D03               	skipz
  5274  0339  2B3C               	goto	u2025
  5275  033A  30FF               	movlw	255
  5276  033B  0246               	subwf	___flmul@temp,w
  5277  033C                     u2025:	
  5278  033C  1C03               	skipc
  5279  033D  2B3F               	goto	u2021
  5280  033E  2B40               	goto	u2020
  5281  033F                     u2021:	
  5282  033F  2B4B               	goto	l2155
  5283  0340                     u2020:	
  5284  0340                     l2153:	
  5285  0340  307F               	movlw	127
  5286  0341  1283               	bcf	3,5	;RP0=0, select bank0
  5287  0342  1303               	bcf	3,6	;RP1=0, select bank0
  5288  0343  00C5               	movwf	___flmul@prod+3
  5289  0344  3080               	movlw	128
  5290  0345  00C4               	movwf	___flmul@prod+2
  5291  0346  3000               	movlw	0
  5292  0347  00C3               	movwf	___flmul@prod+1
  5293  0348  3000               	movlw	0
  5294  0349  00C2               	movwf	___flmul@prod
  5295  034A  2B80               	goto	l962
  5296  034B                     l2155:	
  5297  034B  1283               	bcf	3,5	;RP0=0, select bank0
  5298  034C  1303               	bcf	3,6	;RP1=0, select bank0
  5299  034D  0847               	movf	___flmul@temp+1,w
  5300  034E  3A80               	xorlw	128
  5301  034F  00FF               	movwf	btemp+1
  5302  0350  3080               	movlw	128
  5303  0351  027F               	subwf	btemp+1,w
  5304  0352  1D03               	skipz
  5305  0353  2B56               	goto	u2035
  5306  0354  3001               	movlw	1
  5307  0355  0246               	subwf	___flmul@temp,w
  5308  0356                     u2035:	
  5309  0356  1803               	skipnc
  5310  0357  2B59               	goto	u2031
  5311  0358  2B5A               	goto	u2030
  5312  0359                     u2031:	
  5313  0359  2B66               	goto	l2161
  5314  035A                     u2030:	
  5315  035A                     l2157:	
  5316  035A  3000               	movlw	0
  5317  035B  1283               	bcf	3,5	;RP0=0, select bank0
  5318  035C  1303               	bcf	3,6	;RP1=0, select bank0
  5319  035D  00C5               	movwf	___flmul@prod+3
  5320  035E  3000               	movlw	0
  5321  035F  00C4               	movwf	___flmul@prod+2
  5322  0360  3000               	movlw	0
  5323  0361  00C3               	movwf	___flmul@prod+1
  5324  0362  3000               	movlw	0
  5325  0363  00C2               	movwf	___flmul@prod
  5326  0364                     l2159:	
  5327  0364  01BB               	clrf	___flmul@sign
  5328  0365  2B80               	goto	l962
  5329  0366                     l2161:	
  5330  0366  1283               	bcf	3,5	;RP0=0, select bank0
  5331  0367  1303               	bcf	3,6	;RP1=0, select bank0
  5332  0368  0846               	movf	___flmul@temp,w
  5333  0369  00B6               	movwf	??___flmul
  5334  036A  0836               	movf	??___flmul,w
  5335  036B  00C1               	movwf	___flmul@bexp
  5336  036C  30FF               	movlw	255
  5337  036D  05C2               	andwf	___flmul@prod,f
  5338  036E  30FF               	movlw	255
  5339  036F  05C3               	andwf	___flmul@prod+1,f
  5340  0370  307F               	movlw	127
  5341  0371  05C4               	andwf	___flmul@prod+2,f
  5342  0372  3000               	movlw	0
  5343  0373  05C5               	andwf	___flmul@prod+3,f
  5344  0374                     l2163:	
  5345  0374  1C41               	btfss	___flmul@bexp,0
  5346  0375  2B77               	goto	u2041
  5347  0376  2B78               	goto	u2040
  5348  0377                     u2041:	
  5349  0377  2B79               	goto	l2167
  5350  0378                     u2040:	
  5351  0378                     l2165:	
  5352  0378  17C4               	bsf	___flmul@prod+2,7
  5353  0379                     l2167:	
  5354  0379  0841               	movf	___flmul@bexp,w
  5355  037A  00B6               	movwf	??___flmul
  5356  037B  1003               	clrc
  5357  037C  0C36               	rrf	??___flmul,w
  5358  037D  00B7               	movwf	??___flmul+1
  5359  037E  0837               	movf	??___flmul+1,w
  5360  037F  00C5               	movwf	___flmul@prod+3
  5361  0380                     l962:	
  5362  0380  083B               	movf	___flmul@sign,w
  5363  0381  00B6               	movwf	??___flmul
  5364  0382  0836               	movf	??___flmul,w
  5365  0383  04C5               	iorwf	___flmul@prod+3,f
  5366  0384                     l2169:	
  5367  0384  0845               	movf	___flmul@prod+3,w
  5368  0385  00B1               	movwf	?___flmul+3
  5369  0386  0844               	movf	___flmul@prod+2,w
  5370  0387  00B0               	movwf	?___flmul+2
  5371  0388  0843               	movf	___flmul@prod+1,w
  5372  0389  00AF               	movwf	?___flmul+1
  5373  038A  0842               	movf	___flmul@prod,w
  5374  038B  00AE               	movwf	?___flmul
  5375  038C                     l950:	
  5376  038C  0008               	return
  5377  038D                     __end_of___flmul:	
  5378                           
  5379                           	psect	text27
  5380  0DB4                     __ptext27:	
  5381 ;; *************** function __Umul8_16 *****************
  5382 ;; Defined at:
  5383 ;;		line 4 in file "C:\Program Files (x86)\Microchip\xc8\v2.10\pic\sources\c90\common\Umul8_16.c"
  5384 ;; Parameters:    Size  Location     Type
  5385 ;;  multiplier      1    wreg     unsigned char 
  5386 ;;  multiplicand    1    0[BANK0 ] unsigned char 
  5387 ;; Auto vars:     Size  Location     Type
  5388 ;;  multiplier      1    8[BANK0 ] unsigned char 
  5389 ;;  word_mpld       2    6[BANK0 ] unsigned int 
  5390 ;;  product         2    4[BANK0 ] unsigned int 
  5391 ;; Return value:  Size  Location     Type
  5392 ;;                  2    0[BANK0 ] unsigned int 
  5393 ;; Registers used:
  5394 ;;		wreg, status,2, status,0
  5395 ;; Tracked objects:
  5396 ;;		On entry : 0/0
  5397 ;;		On exit  : 0/0
  5398 ;;		Unchanged: 0/0
  5399 ;; Data sizes:     COMMON   BANK0   BANK1   BANK3   BANK2
  5400 ;;      Params:         0       2       0       0       0
  5401 ;;      Locals:         0       5       0       0       0
  5402 ;;      Temps:          0       2       0       0       0
  5403 ;;      Totals:         0       9       0       0       0
  5404 ;;Total ram usage:        9 bytes
  5405 ;; Hardware stack levels used:    1
  5406 ;; Hardware stack levels required when called:    4
  5407 ;; This function calls:
  5408 ;;		Nothing
  5409 ;; This function is called by:
  5410 ;;		___flmul
  5411 ;; This function uses a non-reentrant model
  5412 ;;
  5413                           
  5414                           
  5415                           ;psect for function __Umul8_16
  5416  0DB4                     __Umul8_16:	
  5417                           
  5418                           ;incstack = 0
  5419                           ; Regs used in __Umul8_16: [wreg+status,2+status,0]
  5420                           ;__Umul8_16@multiplier stored from wreg
  5421  0DB4  1283               	bcf	3,5	;RP0=0, select bank0
  5422  0DB5  1303               	bcf	3,6	;RP1=0, select bank0
  5423  0DB6  00A8               	movwf	__Umul8_16@multiplier
  5424  0DB7                     l1897:	
  5425  0DB7  01A4               	clrf	__Umul8_16@product
  5426  0DB8  01A5               	clrf	__Umul8_16@product+1
  5427  0DB9                     l1899:	
  5428  0DB9  0820               	movf	__Umul8_16@multiplicand,w
  5429  0DBA  00A2               	movwf	??__Umul8_16
  5430  0DBB  01A3               	clrf	??__Umul8_16+1
  5431  0DBC  0822               	movf	??__Umul8_16,w
  5432  0DBD  00A6               	movwf	__Umul8_16@word_mpld
  5433  0DBE  0823               	movf	??__Umul8_16+1,w
  5434  0DBF  00A7               	movwf	__Umul8_16@word_mpld+1
  5435  0DC0                     l1901:	
  5436  0DC0  1C28               	btfss	__Umul8_16@multiplier,0
  5437  0DC1  2DC3               	goto	u1321
  5438  0DC2  2DC4               	goto	u1320
  5439  0DC3                     u1321:	
  5440  0DC3  2DCA               	goto	l1007
  5441  0DC4                     u1320:	
  5442  0DC4                     l1903:	
  5443  0DC4  0826               	movf	__Umul8_16@word_mpld,w
  5444  0DC5  07A4               	addwf	__Umul8_16@product,f
  5445  0DC6  1803               	skipnc
  5446  0DC7  0AA5               	incf	__Umul8_16@product+1,f
  5447  0DC8  0827               	movf	__Umul8_16@word_mpld+1,w
  5448  0DC9  07A5               	addwf	__Umul8_16@product+1,f
  5449  0DCA                     l1007:	
  5450  0DCA  3001               	movlw	1
  5451  0DCB                     u1335:	
  5452  0DCB  1003               	clrc
  5453  0DCC  0DA6               	rlf	__Umul8_16@word_mpld,f
  5454  0DCD  0DA7               	rlf	__Umul8_16@word_mpld+1,f
  5455  0DCE  3EFF               	addlw	-1
  5456  0DCF  1D03               	skipz
  5457  0DD0  2DCB               	goto	u1335
  5458  0DD1  1003               	clrc
  5459  0DD2  0CA8               	rrf	__Umul8_16@multiplier,f
  5460  0DD3                     l1905:	
  5461  0DD3  0828               	movf	__Umul8_16@multiplier,w
  5462  0DD4  1D03               	btfss	3,2
  5463  0DD5  2DD7               	goto	u1341
  5464  0DD6  2DD8               	goto	u1340
  5465  0DD7                     u1341:	
  5466  0DD7  2DC0               	goto	l1901
  5467  0DD8                     u1340:	
  5468  0DD8                     l1907:	
  5469  0DD8  0825               	movf	__Umul8_16@product+1,w
  5470  0DD9  00A1               	movwf	?__Umul8_16+1
  5471  0DDA  0824               	movf	__Umul8_16@product,w
  5472  0DDB  00A0               	movwf	?__Umul8_16
  5473  0DDC                     l1009:	
  5474  0DDC  0008               	return
  5475  0DDD                     __end_of__Umul8_16:	
  5476                           
  5477                           	psect	text28
  5478  0EA6                     __ptext28:	
  5479 ;; *************** function _Calc_Temp_Avg *****************
  5480 ;; Defined at:
  5481 ;;		line 151 in file "System.c"
  5482 ;; Parameters:    Size  Location     Type
  5483 ;;  Array           1    wreg     PTR unsigned int 
  5484 ;;		 -> Temp_Measurments(20), 
  5485 ;; Auto vars:     Size  Location     Type
  5486 ;;  Array           1   16[BANK0 ] PTR unsigned int 
  5487 ;;		 -> Temp_Measurments(20), 
  5488 ;;  element         1   19[BANK0 ] unsigned char 
  5489 ;;  Sum             2   17[BANK0 ] unsigned int 
  5490 ;;  Avg             2   14[BANK0 ] unsigned int 
  5491 ;; Return value:  Size  Location     Type
  5492 ;;                  2    8[BANK0 ] unsigned int 
  5493 ;; Registers used:
  5494 ;;		wreg, fsr0l, fsr0h, status,2, status,0, pclath, cstack
  5495 ;; Tracked objects:
  5496 ;;		On entry : 0/0
  5497 ;;		On exit  : 0/0
  5498 ;;		Unchanged: 0/0
  5499 ;; Data sizes:     COMMON   BANK0   BANK1   BANK3   BANK2
  5500 ;;      Params:         0       2       0       0       0
  5501 ;;      Locals:         0       6       0       0       0
  5502 ;;      Temps:          0       4       0       0       0
  5503 ;;      Totals:         0      12       0       0       0
  5504 ;;Total ram usage:       12 bytes
  5505 ;; Hardware stack levels used:    1
  5506 ;; Hardware stack levels required when called:    5
  5507 ;; This function calls:
  5508 ;;		___lwdiv
  5509 ;; This function is called by:
  5510 ;;		_Task_ON_State
  5511 ;;		_Temp_Array_Init
  5512 ;; This function uses a non-reentrant model
  5513 ;;
  5514                           
  5515                           
  5516                           ;psect for function _Calc_Temp_Avg
  5517  0EA6                     _Calc_Temp_Avg:	
  5518                           
  5519                           ;incstack = 0
  5520                           ; Regs used in _Calc_Temp_Avg: [wreg-fsr0h+status,2+status,0+pclath+cstack]
  5521                           ;Calc_Temp_Avg@Array stored from wreg
  5522  0EA6  1283               	bcf	3,5	;RP0=0, select bank0
  5523  0EA7  1303               	bcf	3,6	;RP1=0, select bank0
  5524  0EA8  00B0               	movwf	Calc_Temp_Avg@Array
  5525  0EA9                     l2263:	
  5526                           
  5527                           ;System.c: 153:     uint16_t Sum = 0 ;
  5528  0EA9  01B1               	clrf	Calc_Temp_Avg@Sum
  5529  0EAA  01B2               	clrf	Calc_Temp_Avg@Sum+1
  5530                           
  5531                           ;System.c: 154:      uint16_t Avg ;;System.c: 156:     for(uint8_t element = 0 ; element
      +                           < 10 ; element ++ ){
  5532  0EAB  01B3               	clrf	Calc_Temp_Avg@element
  5533  0EAC                     l2269:	
  5534                           
  5535                           ;System.c: 157:         Sum = Sum + Array[element] ;
  5536  0EAC  0833               	movf	Calc_Temp_Avg@element,w
  5537  0EAD  00AA               	movwf	??_Calc_Temp_Avg
  5538  0EAE  072A               	addwf	??_Calc_Temp_Avg,w
  5539  0EAF  0730               	addwf	Calc_Temp_Avg@Array,w
  5540  0EB0  00AB               	movwf	??_Calc_Temp_Avg+1
  5541  0EB1  082B               	movf	??_Calc_Temp_Avg+1,w
  5542  0EB2  0084               	movwf	4
  5543  0EB3  1383               	bcf	3,7	;select IRP bank0
  5544  0EB4  0800               	movf	0,w
  5545  0EB5  00AC               	movwf	??_Calc_Temp_Avg+2
  5546  0EB6  0A84               	incf	4,f
  5547  0EB7  0800               	movf	0,w
  5548  0EB8  00AD               	movwf	??_Calc_Temp_Avg+3
  5549  0EB9  0831               	movf	Calc_Temp_Avg@Sum,w
  5550  0EBA  072C               	addwf	??_Calc_Temp_Avg+2,w
  5551  0EBB  00B1               	movwf	Calc_Temp_Avg@Sum
  5552  0EBC  0832               	movf	Calc_Temp_Avg@Sum+1,w
  5553  0EBD  1803               	skipnc
  5554  0EBE  0A32               	incf	Calc_Temp_Avg@Sum+1,w
  5555  0EBF  072D               	addwf	??_Calc_Temp_Avg+3,w
  5556  0EC0  00B2               	movwf	Calc_Temp_Avg@Sum+1
  5557  0EC1                     l2271:	
  5558                           
  5559                           ;System.c: 158:     }
  5560  0EC1  3001               	movlw	1
  5561  0EC2  00AA               	movwf	??_Calc_Temp_Avg
  5562  0EC3  082A               	movf	??_Calc_Temp_Avg,w
  5563  0EC4  07B3               	addwf	Calc_Temp_Avg@element,f
  5564  0EC5                     l2273:	
  5565  0EC5  300A               	movlw	10
  5566  0EC6  0233               	subwf	Calc_Temp_Avg@element,w
  5567  0EC7  1C03               	skipc
  5568  0EC8  2ECA               	goto	u2201
  5569  0EC9  2ECB               	goto	u2200
  5570  0ECA                     u2201:	
  5571  0ECA  2EAC               	goto	l2269
  5572  0ECB                     u2200:	
  5573  0ECB                     l2275:	
  5574                           
  5575                           ;System.c: 159:     Avg = (uint16_t) Sum/10 ;
  5576  0ECB  300A               	movlw	10
  5577  0ECC  00A0               	movwf	___lwdiv@divisor
  5578  0ECD  3000               	movlw	0
  5579  0ECE  00A1               	movwf	___lwdiv@divisor+1
  5580  0ECF  0832               	movf	Calc_Temp_Avg@Sum+1,w
  5581  0ED0  00A3               	movwf	___lwdiv@dividend+1
  5582  0ED1  0831               	movf	Calc_Temp_Avg@Sum,w
  5583  0ED2  00A2               	movwf	___lwdiv@dividend
  5584  0ED3  120A  158A  26E3  120A  158A  	fcall	___lwdiv
  5585  0ED8  1283               	bcf	3,5	;RP0=0, select bank0
  5586  0ED9  1303               	bcf	3,6	;RP1=0, select bank0
  5587  0EDA  0821               	movf	?___lwdiv+1,w
  5588  0EDB  00AF               	movwf	Calc_Temp_Avg@Avg+1
  5589  0EDC  0820               	movf	?___lwdiv,w
  5590  0EDD  00AE               	movwf	Calc_Temp_Avg@Avg
  5591  0EDE                     l2277:	
  5592                           
  5593                           ;System.c: 160:     return Avg;
  5594  0EDE  082F               	movf	Calc_Temp_Avg@Avg+1,w
  5595  0EDF  00A9               	movwf	?_Calc_Temp_Avg+1
  5596  0EE0  082E               	movf	Calc_Temp_Avg@Avg,w
  5597  0EE1  00A8               	movwf	?_Calc_Temp_Avg
  5598  0EE2                     l344:	
  5599  0EE2  0008               	return
  5600  0EE3                     __end_of_Calc_Temp_Avg:	
  5601                           
  5602                           	psect	text29
  5603  0EE3                     __ptext29:	
  5604 ;; *************** function ___lwdiv *****************
  5605 ;; Defined at:
  5606 ;;		line 5 in file "C:\Program Files (x86)\Microchip\xc8\v2.10\pic\sources\c90\common\lwdiv.c"
  5607 ;; Parameters:    Size  Location     Type
  5608 ;;  divisor         2    0[BANK0 ] unsigned int 
  5609 ;;  dividend        2    2[BANK0 ] unsigned int 
  5610 ;; Auto vars:     Size  Location     Type
  5611 ;;  quotient        2    5[BANK0 ] unsigned int 
  5612 ;;  counter         1    7[BANK0 ] unsigned char 
  5613 ;; Return value:  Size  Location     Type
  5614 ;;                  2    0[BANK0 ] unsigned int 
  5615 ;; Registers used:
  5616 ;;		wreg, status,2, status,0
  5617 ;; Tracked objects:
  5618 ;;		On entry : 0/0
  5619 ;;		On exit  : 0/0
  5620 ;;		Unchanged: 0/0
  5621 ;; Data sizes:     COMMON   BANK0   BANK1   BANK3   BANK2
  5622 ;;      Params:         0       4       0       0       0
  5623 ;;      Locals:         0       3       0       0       0
  5624 ;;      Temps:          0       1       0       0       0
  5625 ;;      Totals:         0       8       0       0       0
  5626 ;;Total ram usage:        8 bytes
  5627 ;; Hardware stack levels used:    1
  5628 ;; Hardware stack levels required when called:    4
  5629 ;; This function calls:
  5630 ;;		Nothing
  5631 ;; This function is called by:
  5632 ;;		_Calc_Temp_Avg
  5633 ;;		_Sev_Seg_Write_99
  5634 ;; This function uses a non-reentrant model
  5635 ;;
  5636                           
  5637                           
  5638                           ;psect for function ___lwdiv
  5639  0EE3                     ___lwdiv:	
  5640  0EE3                     l2007:	
  5641                           ;incstack = 0
  5642                           ; Regs used in ___lwdiv: [wreg+status,2+status,0]
  5643                           
  5644  0EE3  1283               	bcf	3,5	;RP0=0, select bank0
  5645  0EE4  1303               	bcf	3,6	;RP1=0, select bank0
  5646  0EE5  01A5               	clrf	___lwdiv@quotient
  5647  0EE6  01A6               	clrf	___lwdiv@quotient+1
  5648  0EE7                     l2009:	
  5649  0EE7  0820               	movf	___lwdiv@divisor,w
  5650  0EE8  0421               	iorwf	___lwdiv@divisor+1,w
  5651  0EE9  1903               	btfsc	3,2
  5652  0EEA  2EEC               	goto	u1611
  5653  0EEB  2EED               	goto	u1610
  5654  0EEC                     u1611:	
  5655  0EEC  2F24               	goto	l2029
  5656  0EED                     u1610:	
  5657  0EED                     l2011:	
  5658  0EED  01A7               	clrf	___lwdiv@counter
  5659  0EEE  0AA7               	incf	___lwdiv@counter,f
  5660  0EEF  2EFB               	goto	l2017
  5661  0EF0                     l2013:	
  5662  0EF0  3001               	movlw	1
  5663  0EF1                     u1625:	
  5664  0EF1  1003               	clrc
  5665  0EF2  0DA0               	rlf	___lwdiv@divisor,f
  5666  0EF3  0DA1               	rlf	___lwdiv@divisor+1,f
  5667  0EF4  3EFF               	addlw	-1
  5668  0EF5  1D03               	skipz
  5669  0EF6  2EF1               	goto	u1625
  5670  0EF7                     l2015:	
  5671  0EF7  3001               	movlw	1
  5672  0EF8  00A4               	movwf	??___lwdiv
  5673  0EF9  0824               	movf	??___lwdiv,w
  5674  0EFA  07A7               	addwf	___lwdiv@counter,f
  5675  0EFB                     l2017:	
  5676  0EFB  1FA1               	btfss	___lwdiv@divisor+1,7
  5677  0EFC  2EFE               	goto	u1631
  5678  0EFD  2EFF               	goto	u1630
  5679  0EFE                     u1631:	
  5680  0EFE  2EF0               	goto	l2013
  5681  0EFF                     u1630:	
  5682  0EFF                     l2019:	
  5683  0EFF  3001               	movlw	1
  5684  0F00                     u1645:	
  5685  0F00  1003               	clrc
  5686  0F01  0DA5               	rlf	___lwdiv@quotient,f
  5687  0F02  0DA6               	rlf	___lwdiv@quotient+1,f
  5688  0F03  3EFF               	addlw	-1
  5689  0F04  1D03               	skipz
  5690  0F05  2F00               	goto	u1645
  5691  0F06  0821               	movf	___lwdiv@divisor+1,w
  5692  0F07  0223               	subwf	___lwdiv@dividend+1,w
  5693  0F08  1D03               	skipz
  5694  0F09  2F0C               	goto	u1655
  5695  0F0A  0820               	movf	___lwdiv@divisor,w
  5696  0F0B  0222               	subwf	___lwdiv@dividend,w
  5697  0F0C                     u1655:	
  5698  0F0C  1C03               	skipc
  5699  0F0D  2F0F               	goto	u1651
  5700  0F0E  2F10               	goto	u1650
  5701  0F0F                     u1651:	
  5702  0F0F  2F17               	goto	l2025
  5703  0F10                     u1650:	
  5704  0F10                     l2021:	
  5705  0F10  0820               	movf	___lwdiv@divisor,w
  5706  0F11  02A2               	subwf	___lwdiv@dividend,f
  5707  0F12  0821               	movf	___lwdiv@divisor+1,w
  5708  0F13  1C03               	skipc
  5709  0F14  03A3               	decf	___lwdiv@dividend+1,f
  5710  0F15  02A3               	subwf	___lwdiv@dividend+1,f
  5711  0F16                     l2023:	
  5712  0F16  1425               	bsf	___lwdiv@quotient,0
  5713  0F17                     l2025:	
  5714  0F17  3001               	movlw	1
  5715  0F18                     u1665:	
  5716  0F18  1003               	clrc
  5717  0F19  0CA1               	rrf	___lwdiv@divisor+1,f
  5718  0F1A  0CA0               	rrf	___lwdiv@divisor,f
  5719  0F1B  3EFF               	addlw	-1
  5720  0F1C  1D03               	skipz
  5721  0F1D  2F18               	goto	u1665
  5722  0F1E                     l2027:	
  5723  0F1E  3001               	movlw	1
  5724  0F1F  02A7               	subwf	___lwdiv@counter,f
  5725  0F20  1D03               	btfss	3,2
  5726  0F21  2F23               	goto	u1671
  5727  0F22  2F24               	goto	u1670
  5728  0F23                     u1671:	
  5729  0F23  2EFF               	goto	l2019
  5730  0F24                     u1670:	
  5731  0F24                     l2029:	
  5732  0F24  0826               	movf	___lwdiv@quotient+1,w
  5733  0F25  00A1               	movwf	?___lwdiv+1
  5734  0F26  0825               	movf	___lwdiv@quotient,w
  5735  0F27  00A0               	movwf	?___lwdiv
  5736  0F28                     l833:	
  5737  0F28  0008               	return
  5738  0F29                     __end_of___lwdiv:	
  5739                           
  5740                           	psect	text30
  5741  0CC9                     __ptext30:	
  5742 ;; *************** function _TMR1_Init *****************
  5743 ;; Defined at:
  5744 ;;		line 5 in file "Timer.c"
  5745 ;; Parameters:    Size  Location     Type
  5746 ;;		None
  5747 ;; Auto vars:     Size  Location     Type
  5748 ;;		None
  5749 ;; Return value:  Size  Location     Type
  5750 ;;                  1    wreg      void 
  5751 ;; Registers used:
  5752 ;;		wreg
  5753 ;; Tracked objects:
  5754 ;;		On entry : 0/0
  5755 ;;		On exit  : 0/0
  5756 ;;		Unchanged: 0/0
  5757 ;; Data sizes:     COMMON   BANK0   BANK1   BANK3   BANK2
  5758 ;;      Params:         0       0       0       0       0
  5759 ;;      Locals:         0       0       0       0       0
  5760 ;;      Temps:          0       0       0       0       0
  5761 ;;      Totals:         0       0       0       0       0
  5762 ;;Total ram usage:        0 bytes
  5763 ;; Hardware stack levels used:    1
  5764 ;; Hardware stack levels required when called:    4
  5765 ;; This function calls:
  5766 ;;		Nothing
  5767 ;; This function is called by:
  5768 ;;		_Sys_Init
  5769 ;; This function uses a non-reentrant model
  5770 ;;
  5771                           
  5772                           
  5773                           ;psect for function _TMR1_Init
  5774  0CC9                     _TMR1_Init:	
  5775  0CC9                     l2475:	
  5776                           ;incstack = 0
  5777                           ; Regs used in _TMR1_Init: [wreg]
  5778                           
  5779                           
  5780                           ;Timer.c: 8:     T1CONbits.T1CKPS0 = 1 ;
  5781  0CC9  1283               	bcf	3,5	;RP0=0, select bank0
  5782  0CCA  1303               	bcf	3,6	;RP1=0, select bank0
  5783  0CCB  1610               	bsf	16,4	;volatile
  5784                           
  5785                           ;Timer.c: 9:     T1CONbits.T1CKPS1 = 1 ;
  5786  0CCC  1690               	bsf	16,5	;volatile
  5787                           
  5788                           ;Timer.c: 13:       T1CONbits.TMR1CS = 0 ;
  5789  0CCD  1090               	bcf	16,1	;volatile
  5790                           
  5791                           ;Timer.c: 15:       T1CONbits.T1OSCEN = 0 ;
  5792  0CCE  1190               	bcf	16,3	;volatile
  5793                           
  5794                           ;Timer.c: 17:       T1CONbits.nT1SYNC = 1 ;
  5795  0CCF  1510               	bsf	16,2	;volatile
  5796                           
  5797                           ;Timer.c: 20:       T1CONbits.TMR1ON = 1 ;
  5798  0CD0  1410               	bsf	16,0	;volatile
  5799                           
  5800                           ;Timer.c: 23:       PIE1bits.TMR1IE = 1 ;
  5801  0CD1  1683               	bsf	3,5	;RP0=1, select bank1
  5802  0CD2  1303               	bcf	3,6	;RP1=0, select bank1
  5803  0CD3  140C               	bsf	12,0	;volatile
  5804  0CD4                     l2477:	
  5805                           
  5806                           ;Timer.c: 26:       TMR1L = 0xDC;
  5807  0CD4  30DC               	movlw	220
  5808  0CD5  1283               	bcf	3,5	;RP0=0, select bank0
  5809  0CD6  1303               	bcf	3,6	;RP1=0, select bank0
  5810  0CD7  008E               	movwf	14	;volatile
  5811                           
  5812                           ;Timer.c: 27:       TMR1H = 0x0B ;
  5813  0CD8  300B               	movlw	11
  5814  0CD9  008F               	movwf	15	;volatile
  5815  0CDA                     l427:	
  5816  0CDA  0008               	return
  5817  0CDB                     __end_of_TMR1_Init:	
  5818                           
  5819                           	psect	text31
  5820  0C9A                     __ptext31:	
  5821 ;; *************** function _TMR0_Init *****************
  5822 ;; Defined at:
  5823 ;;		line 31 in file "Timer.c"
  5824 ;; Parameters:    Size  Location     Type
  5825 ;;		None
  5826 ;; Auto vars:     Size  Location     Type
  5827 ;;		None
  5828 ;; Return value:  Size  Location     Type
  5829 ;;                  1    wreg      void 
  5830 ;; Registers used:
  5831 ;;		wreg
  5832 ;; Tracked objects:
  5833 ;;		On entry : 0/0
  5834 ;;		On exit  : 0/0
  5835 ;;		Unchanged: 0/0
  5836 ;; Data sizes:     COMMON   BANK0   BANK1   BANK3   BANK2
  5837 ;;      Params:         0       0       0       0       0
  5838 ;;      Locals:         0       0       0       0       0
  5839 ;;      Temps:          0       0       0       0       0
  5840 ;;      Totals:         0       0       0       0       0
  5841 ;;Total ram usage:        0 bytes
  5842 ;; Hardware stack levels used:    1
  5843 ;; Hardware stack levels required when called:    4
  5844 ;; This function calls:
  5845 ;;		Nothing
  5846 ;; This function is called by:
  5847 ;;		_Sys_Init
  5848 ;; This function uses a non-reentrant model
  5849 ;;
  5850                           
  5851                           
  5852                           ;psect for function _TMR0_Init
  5853  0C9A                     _TMR0_Init:	
  5854  0C9A                     l2479:	
  5855                           ;incstack = 0
  5856                           ; Regs used in _TMR0_Init: [wreg]
  5857                           
  5858                           
  5859                           ;Timer.c: 33:     OPTION_REGbits.T0SE = 0 ;
  5860  0C9A  1683               	bsf	3,5	;RP0=1, select bank1
  5861  0C9B  1303               	bcf	3,6	;RP1=0, select bank1
  5862  0C9C  1201               	bcf	1,4	;volatile
  5863                           
  5864                           ;Timer.c: 34:     OPTION_REGbits.T0CS = 0 ;
  5865  0C9D  1281               	bcf	1,5	;volatile
  5866                           
  5867                           ;Timer.c: 35:     OPTION_REGbits.PSA = 0 ;
  5868  0C9E  1181               	bcf	1,3	;volatile
  5869                           
  5870                           ;Timer.c: 36:     OPTION_REGbits.PS0 = 1 ;
  5871  0C9F  1401               	bsf	1,0	;volatile
  5872                           
  5873                           ;Timer.c: 37:     OPTION_REGbits.PS1 = 0 ;
  5874  0CA0  1081               	bcf	1,1	;volatile
  5875                           
  5876                           ;Timer.c: 38:     OPTION_REGbits.PS2 = 1 ;
  5877  0CA1  1501               	bsf	1,2	;volatile
  5878                           
  5879                           ;Timer.c: 39:     INTCONbits.T0IE = 1 ;
  5880  0CA2  168B               	bsf	11,5	;volatile
  5881  0CA3                     l2481:	
  5882                           
  5883                           ;Timer.c: 41:     TMR0 = 0x83 ;
  5884  0CA3  3083               	movlw	131
  5885  0CA4  1283               	bcf	3,5	;RP0=0, select bank0
  5886  0CA5  1303               	bcf	3,6	;RP1=0, select bank0
  5887  0CA6  0081               	movwf	1	;volatile
  5888  0CA7                     l430:	
  5889  0CA7  0008               	return
  5890  0CA8                     __end_of_TMR0_Init:	
  5891                           
  5892                           	psect	text32
  5893  0C29                     __ptext32:	
  5894 ;; *************** function _Sev_Seg_Init *****************
  5895 ;; Defined at:
  5896 ;;		line 84 in file "display7s.c"
  5897 ;; Parameters:    Size  Location     Type
  5898 ;;		None
  5899 ;; Auto vars:     Size  Location     Type
  5900 ;;		None
  5901 ;; Return value:  Size  Location     Type
  5902 ;;                  1    wreg      void 
  5903 ;; Registers used:
  5904 ;;		status,2
  5905 ;; Tracked objects:
  5906 ;;		On entry : 0/0
  5907 ;;		On exit  : 0/0
  5908 ;;		Unchanged: 0/0
  5909 ;; Data sizes:     COMMON   BANK0   BANK1   BANK3   BANK2
  5910 ;;      Params:         0       0       0       0       0
  5911 ;;      Locals:         0       0       0       0       0
  5912 ;;      Temps:          0       0       0       0       0
  5913 ;;      Totals:         0       0       0       0       0
  5914 ;;Total ram usage:        0 bytes
  5915 ;; Hardware stack levels used:    1
  5916 ;; Hardware stack levels required when called:    4
  5917 ;; This function calls:
  5918 ;;		Nothing
  5919 ;; This function is called by:
  5920 ;;		_Sys_Init
  5921 ;; This function uses a non-reentrant model
  5922 ;;
  5923                           
  5924                           
  5925                           ;psect for function _Sev_Seg_Init
  5926  0C29                     _Sev_Seg_Init:	
  5927  0C29                     l2469:	
  5928                           ;incstack = 0
  5929                           ; Regs used in _Sev_Seg_Init: [status,2]
  5930                           
  5931                           
  5932                           ;display7s.c: 88:       TRISAbits.TRISA4 = 0 ;
  5933  0C29  1683               	bsf	3,5	;RP0=1, select bank1
  5934  0C2A  1303               	bcf	3,6	;RP1=0, select bank1
  5935  0C2B  1205               	bcf	5,4	;volatile
  5936                           
  5937                           ;display7s.c: 89:       TRISAbits.TRISA3 = 0 ;
  5938  0C2C  1185               	bcf	5,3	;volatile
  5939  0C2D                     l2471:	
  5940                           
  5941                           ;display7s.c: 91:       TRISD = 0x00 ;
  5942  0C2D  0188               	clrf	8	;volatile
  5943  0C2E                     l472:	
  5944  0C2E  0008               	return
  5945  0C2F                     __end_of_Sev_Seg_Init:	
  5946                           
  5947                           	psect	text33
  5948  0C3D                     __ptext33:	
  5949 ;; *************** function _ON_Button_EXTI_Init *****************
  5950 ;; Defined at:
  5951 ;;		line 14 in file "Buttons.c"
  5952 ;; Parameters:    Size  Location     Type
  5953 ;;		None
  5954 ;; Auto vars:     Size  Location     Type
  5955 ;;		None
  5956 ;; Return value:  Size  Location     Type
  5957 ;;                  1    wreg      void 
  5958 ;; Registers used:
  5959 ;;		None
  5960 ;; Tracked objects:
  5961 ;;		On entry : 0/0
  5962 ;;		On exit  : 0/0
  5963 ;;		Unchanged: 0/0
  5964 ;; Data sizes:     COMMON   BANK0   BANK1   BANK3   BANK2
  5965 ;;      Params:         0       0       0       0       0
  5966 ;;      Locals:         0       0       0       0       0
  5967 ;;      Temps:          0       0       0       0       0
  5968 ;;      Totals:         0       0       0       0       0
  5969 ;;Total ram usage:        0 bytes
  5970 ;; Hardware stack levels used:    1
  5971 ;; Hardware stack levels required when called:    4
  5972 ;; This function calls:
  5973 ;;		Nothing
  5974 ;; This function is called by:
  5975 ;;		_Sys_Init
  5976 ;; This function uses a non-reentrant model
  5977 ;;
  5978                           
  5979                           
  5980                           ;psect for function _ON_Button_EXTI_Init
  5981  0C3D                     _ON_Button_EXTI_Init:	
  5982  0C3D                     l2353:	
  5983                           ;incstack = 0
  5984                           ; Regs used in _ON_Button_EXTI_Init: []
  5985                           
  5986                           
  5987                           ;Buttons.c: 16:      GIE=1;
  5988  0C3D  178B               	bsf	11,7	;volatile
  5989                           
  5990                           ;Buttons.c: 17:      PEIE=1;
  5991  0C3E  170B               	bsf	11,6	;volatile
  5992                           
  5993                           ;Buttons.c: 18:      OPTION_REGbits.INTEDG = 0 ;
  5994  0C3F  1683               	bsf	3,5	;RP0=1, select bank1
  5995  0C40  1303               	bcf	3,6	;RP1=0, select bank1
  5996  0C41  1301               	bcf	1,6	;volatile
  5997                           
  5998                           ;Buttons.c: 19:      OPTION_REGbits.nRBPU = 0 ;
  5999  0C42  1381               	bcf	1,7	;volatile
  6000                           
  6001                           ;Buttons.c: 20:      INTE = 1;
  6002  0C43  160B               	bsf	11,4	;volatile
  6003  0C44                     l24:	
  6004  0C44  0008               	return
  6005  0C45                     __end_of_ON_Button_EXTI_Init:	
  6006                           
  6007                           	psect	text34
  6008  0C36                     __ptext34:	
  6009 ;; *************** function _Heating_LED_Init *****************
  6010 ;; Defined at:
  6011 ;;		line 4 in file "Leds.c"
  6012 ;; Parameters:    Size  Location     Type
  6013 ;;		None
  6014 ;; Auto vars:     Size  Location     Type
  6015 ;;		None
  6016 ;; Return value:  Size  Location     Type
  6017 ;;                  1    wreg      void 
  6018 ;; Registers used:
  6019 ;;		None
  6020 ;; Tracked objects:
  6021 ;;		On entry : 0/0
  6022 ;;		On exit  : 0/0
  6023 ;;		Unchanged: 0/0
  6024 ;; Data sizes:     COMMON   BANK0   BANK1   BANK3   BANK2
  6025 ;;      Params:         0       0       0       0       0
  6026 ;;      Locals:         0       0       0       0       0
  6027 ;;      Temps:          0       0       0       0       0
  6028 ;;      Totals:         0       0       0       0       0
  6029 ;;Total ram usage:        0 bytes
  6030 ;; Hardware stack levels used:    1
  6031 ;; Hardware stack levels required when called:    4
  6032 ;; This function calls:
  6033 ;;		Nothing
  6034 ;; This function is called by:
  6035 ;;		_Sys_Init
  6036 ;; This function uses a non-reentrant model
  6037 ;;
  6038                           
  6039                           
  6040                           ;psect for function _Heating_LED_Init
  6041  0C36                     _Heating_LED_Init:	
  6042  0C36                     l2419:	
  6043                           ;incstack = 0
  6044                           ; Regs used in _Heating_LED_Init: []
  6045                           
  6046                           
  6047                           ;Leds.c: 5:       TRISBbits.TRISB7 = 0 ;
  6048  0C36  1683               	bsf	3,5	;RP0=1, select bank1
  6049  0C37  1303               	bcf	3,6	;RP1=0, select bank1
  6050  0C38  1386               	bcf	6,7	;volatile
  6051                           
  6052                           ;Leds.c: 6:       PORTBbits.RB7 = 0 ;
  6053  0C39  1283               	bcf	3,5	;RP0=0, select bank0
  6054  0C3A  1303               	bcf	3,6	;RP1=0, select bank0
  6055  0C3B  1386               	bcf	6,7	;volatile
  6056  0C3C                     l219:	
  6057  0C3C  0008               	return
  6058  0C3D                     __end_of_Heating_LED_Init:	
  6059                           
  6060                           	psect	text35
  6061  0C02                     __ptext35:	
  6062 ;; *************** function _Heater_Init *****************
  6063 ;; Defined at:
  6064 ;;		line 5 in file "Heater.c"
  6065 ;; Parameters:    Size  Location     Type
  6066 ;;		None
  6067 ;; Auto vars:     Size  Location     Type
  6068 ;;		None
  6069 ;; Return value:  Size  Location     Type
  6070 ;;                  1    wreg      void 
  6071 ;; Registers used:
  6072 ;;		None
  6073 ;; Tracked objects:
  6074 ;;		On entry : 0/0
  6075 ;;		On exit  : 0/0
  6076 ;;		Unchanged: 0/0
  6077 ;; Data sizes:     COMMON   BANK0   BANK1   BANK3   BANK2
  6078 ;;      Params:         0       0       0       0       0
  6079 ;;      Locals:         0       0       0       0       0
  6080 ;;      Temps:          0       0       0       0       0
  6081 ;;      Totals:         0       0       0       0       0
  6082 ;;Total ram usage:        0 bytes
  6083 ;; Hardware stack levels used:    1
  6084 ;; Hardware stack levels required when called:    4
  6085 ;; This function calls:
  6086 ;;		Nothing
  6087 ;; This function is called by:
  6088 ;;		_Sys_Init
  6089 ;; This function uses a non-reentrant model
  6090 ;;
  6091                           
  6092                           
  6093                           ;psect for function _Heater_Init
  6094  0C02                     _Heater_Init:	
  6095  0C02                     l2417:	
  6096                           ;incstack = 0
  6097                           ; Regs used in _Heater_Init: []
  6098                           
  6099                           
  6100                           ;Heater.c: 7:        TRISCbits.TRISC5 = 0 ;
  6101  0C02  1683               	bsf	3,5	;RP0=1, select bank1
  6102  0C03  1303               	bcf	3,6	;RP1=0, select bank1
  6103  0C04  1287               	bcf	7,5	;volatile
  6104  0C05                     l158:	
  6105  0C05  0008               	return
  6106  0C06                     __end_of_Heater_Init:	
  6107                           
  6108                           	psect	text36
  6109  0BFE                     __ptext36:	
  6110 ;; *************** function _Fan_Init *****************
  6111 ;; Defined at:
  6112 ;;		line 4 in file "Fan.c"
  6113 ;; Parameters:    Size  Location     Type
  6114 ;;		None
  6115 ;; Auto vars:     Size  Location     Type
  6116 ;;		None
  6117 ;; Return value:  Size  Location     Type
  6118 ;;                  1    wreg      void 
  6119 ;; Registers used:
  6120 ;;		None
  6121 ;; Tracked objects:
  6122 ;;		On entry : 0/0
  6123 ;;		On exit  : 0/0
  6124 ;;		Unchanged: 0/0
  6125 ;; Data sizes:     COMMON   BANK0   BANK1   BANK3   BANK2
  6126 ;;      Params:         0       0       0       0       0
  6127 ;;      Locals:         0       0       0       0       0
  6128 ;;      Temps:          0       0       0       0       0
  6129 ;;      Totals:         0       0       0       0       0
  6130 ;;Total ram usage:        0 bytes
  6131 ;; Hardware stack levels used:    1
  6132 ;; Hardware stack levels required when called:    4
  6133 ;; This function calls:
  6134 ;;		Nothing
  6135 ;; This function is called by:
  6136 ;;		_Sys_Init
  6137 ;; This function uses a non-reentrant model
  6138 ;;
  6139                           
  6140                           
  6141                           ;psect for function _Fan_Init
  6142  0BFE                     _Fan_Init:	
  6143  0BFE                     l2415:	
  6144                           ;incstack = 0
  6145                           ; Regs used in _Fan_Init: []
  6146                           
  6147                           
  6148                           ;Fan.c: 5:     TRISCbits.TRISC2 = 0 ;
  6149  0BFE  1683               	bsf	3,5	;RP0=1, select bank1
  6150  0BFF  1303               	bcf	3,6	;RP1=0, select bank1
  6151  0C00  1107               	bcf	7,2	;volatile
  6152  0C01                     l145:	
  6153  0C01  0008               	return
  6154  0C02                     __end_of_Fan_Init:	
  6155                           
  6156                           	psect	text37
  6157  07DA                     __ptext37:	
  6158 ;; *************** function _EEPROM_Write *****************
  6159 ;; Defined at:
  6160 ;;		line 23 in file "EEPROM.c"
  6161 ;; Parameters:    Size  Location     Type
  6162 ;;  Address         1    wreg     unsigned char 
  6163 ;;  Value           1    1[BANK0 ] unsigned char 
  6164 ;; Auto vars:     Size  Location     Type
  6165 ;;  Address         1    2[BANK0 ] unsigned char 
  6166 ;; Return value:  Size  Location     Type
  6167 ;;                  1    wreg      void 
  6168 ;; Registers used:
  6169 ;;		wreg, status,2, status,0, pclath, cstack
  6170 ;; Tracked objects:
  6171 ;;		On entry : 0/0
  6172 ;;		On exit  : 0/0
  6173 ;;		Unchanged: 0/0
  6174 ;; Data sizes:     COMMON   BANK0   BANK1   BANK3   BANK2
  6175 ;;      Params:         0       1       0       0       0
  6176 ;;      Locals:         0       1       0       0       0
  6177 ;;      Temps:          0       0       0       0       0
  6178 ;;      Totals:         0       2       0       0       0
  6179 ;;Total ram usage:        2 bytes
  6180 ;; Hardware stack levels used:    1
  6181 ;; Hardware stack levels required when called:    6
  6182 ;; This function calls:
  6183 ;;		_I2C_Start
  6184 ;;		_I2C_Stop
  6185 ;;		_I2C_Write_Byte
  6186 ;; This function is called by:
  6187 ;;		_Task_ChangeTemp_State
  6188 ;;		_Sys_Init
  6189 ;; This function uses a non-reentrant model
  6190 ;;
  6191                           
  6192                           
  6193                           ;psect for function _EEPROM_Write
  6194  07DA                     _EEPROM_Write:	
  6195                           
  6196                           ;incstack = 0
  6197                           ; Regs used in _EEPROM_Write: [wreg+status,2+status,0+pclath+cstack]
  6198                           ;EEPROM_Write@Address stored from wreg
  6199  07DA  1283               	bcf	3,5	;RP0=0, select bank0
  6200  07DB  1303               	bcf	3,6	;RP1=0, select bank0
  6201  07DC  00A2               	movwf	EEPROM_Write@Address
  6202  07DD                     l2413:	
  6203                           
  6204                           ;EEPROM.c: 23: void EEPROM_Write(uint8_t Address, uint8_t Value);EEPROM.c: 24: {;EEPROM.
      +                          c: 25:     I2C_Start();
  6205  07DD  120A  158A  2456  120A  118A  	fcall	_I2C_Start
  6206                           
  6207                           ;EEPROM.c: 26:     I2C_Write_Byte(0xA0);
  6208  07E2  30A0               	movlw	160
  6209  07E3  120A  158A  248D  120A  118A  	fcall	_I2C_Write_Byte
  6210                           
  6211                           ;EEPROM.c: 28:     I2C_Write_Byte(Address);
  6212  07E8  1283               	bcf	3,5	;RP0=0, select bank0
  6213  07E9  1303               	bcf	3,6	;RP1=0, select bank0
  6214  07EA  0822               	movf	EEPROM_Write@Address,w
  6215  07EB  120A  158A  248D  120A  118A  	fcall	_I2C_Write_Byte
  6216                           
  6217                           ;EEPROM.c: 30:     I2C_Write_Byte(Value);
  6218  07F0  1283               	bcf	3,5	;RP0=0, select bank0
  6219  07F1  1303               	bcf	3,6	;RP1=0, select bank0
  6220  07F2  0821               	movf	EEPROM_Write@Value,w
  6221  07F3  120A  158A  248D  120A  118A  	fcall	_I2C_Write_Byte
  6222                           
  6223                           ;EEPROM.c: 31:     I2C_Stop();
  6224  07F8  120A  158A  245F  120A  118A  	fcall	_I2C_Stop
  6225  07FD                     l64:	
  6226  07FD  0008               	return
  6227  07FE                     __end_of_EEPROM_Write:	
  6228                           
  6229                           	psect	text38
  6230  0C8D                     __ptext38:	
  6231 ;; *************** function _I2C_Write_Byte *****************
  6232 ;; Defined at:
  6233 ;;		line 41 in file "I2C.c"
  6234 ;; Parameters:    Size  Location     Type
  6235 ;;  val             1    wreg     unsigned char 
  6236 ;; Auto vars:     Size  Location     Type
  6237 ;;  val             1    0[BANK0 ] unsigned char 
  6238 ;; Return value:  Size  Location     Type
  6239 ;;                  1    wreg      void 
  6240 ;; Registers used:
  6241 ;;		wreg, status,2, status,0, pclath, cstack
  6242 ;; Tracked objects:
  6243 ;;		On entry : 0/0
  6244 ;;		On exit  : 0/0
  6245 ;;		Unchanged: 0/0
  6246 ;; Data sizes:     COMMON   BANK0   BANK1   BANK3   BANK2
  6247 ;;      Params:         0       0       0       0       0
  6248 ;;      Locals:         0       1       0       0       0
  6249 ;;      Temps:          0       0       0       0       0
  6250 ;;      Totals:         0       1       0       0       0
  6251 ;;Total ram usage:        1 bytes
  6252 ;; Hardware stack levels used:    1
  6253 ;; Hardware stack levels required when called:    5
  6254 ;; This function calls:
  6255 ;;		_I2C_Hold
  6256 ;; This function is called by:
  6257 ;;		_EEPROM_Write
  6258 ;; This function uses a non-reentrant model
  6259 ;;
  6260                           
  6261                           
  6262                           ;psect for function _I2C_Write_Byte
  6263  0C8D                     _I2C_Write_Byte:	
  6264                           
  6265                           ;incstack = 0
  6266                           ; Regs used in _I2C_Write_Byte: [wreg+status,2+status,0+pclath+cstack]
  6267                           ;I2C_Write_Byte@val stored from wreg
  6268  0C8D  1283               	bcf	3,5	;RP0=0, select bank0
  6269  0C8E  1303               	bcf	3,6	;RP1=0, select bank0
  6270  0C8F  00A0               	movwf	I2C_Write_Byte@val
  6271  0C90                     l2231:	
  6272                           
  6273                           ;I2C.c: 41: void I2C_Write_Byte(uint8_t val);I2C.c: 42: {;I2C.c: 44:     I2C_Hold();
  6274  0C90  120A  158A  2480  120A  158A  	fcall	_I2C_Hold
  6275  0C95                     l2233:	
  6276                           
  6277                           ;I2C.c: 45:     SSPBUF = val ;
  6278  0C95  1283               	bcf	3,5	;RP0=0, select bank0
  6279  0C96  1303               	bcf	3,6	;RP1=0, select bank0
  6280  0C97  0820               	movf	I2C_Write_Byte@val,w
  6281  0C98  0093               	movwf	19	;volatile
  6282  0C99                     l203:	
  6283  0C99  0008               	return
  6284  0C9A                     __end_of_I2C_Write_Byte:	
  6285                           
  6286                           	psect	text39
  6287  0C5F                     __ptext39:	
  6288 ;; *************** function _I2C_Stop *****************
  6289 ;; Defined at:
  6290 ;;		line 29 in file "I2C.c"
  6291 ;; Parameters:    Size  Location     Type
  6292 ;;		None
  6293 ;; Auto vars:     Size  Location     Type
  6294 ;;		None
  6295 ;; Return value:  Size  Location     Type
  6296 ;;                  1    wreg      void 
  6297 ;; Registers used:
  6298 ;;		wreg, status,2, status,0, pclath, cstack
  6299 ;; Tracked objects:
  6300 ;;		On entry : 0/0
  6301 ;;		On exit  : 0/0
  6302 ;;		Unchanged: 0/0
  6303 ;; Data sizes:     COMMON   BANK0   BANK1   BANK3   BANK2
  6304 ;;      Params:         0       0       0       0       0
  6305 ;;      Locals:         0       0       0       0       0
  6306 ;;      Temps:          0       0       0       0       0
  6307 ;;      Totals:         0       0       0       0       0
  6308 ;;Total ram usage:        0 bytes
  6309 ;; Hardware stack levels used:    1
  6310 ;; Hardware stack levels required when called:    5
  6311 ;; This function calls:
  6312 ;;		_I2C_Hold
  6313 ;; This function is called by:
  6314 ;;		_EEPROM_Write
  6315 ;; This function uses a non-reentrant model
  6316 ;;
  6317                           
  6318                           
  6319                           ;psect for function _I2C_Stop
  6320  0C5F                     _I2C_Stop:	
  6321  0C5F                     l2235:	
  6322                           ;incstack = 0
  6323                           ; Regs used in _I2C_Stop: [wreg+status,2+status,0+pclath+cstack]
  6324                           
  6325                           
  6326                           ;I2C.c: 31:       I2C_Hold();
  6327  0C5F  120A  158A  2480  120A  158A  	fcall	_I2C_Hold
  6328  0C64                     l2237:	
  6329                           
  6330                           ;I2C.c: 32:       SSPCON2bits.PEN = 1 ;
  6331  0C64  1683               	bsf	3,5	;RP0=1, select bank1
  6332  0C65  1303               	bcf	3,6	;RP1=0, select bank1
  6333  0C66  1511               	bsf	17,2	;volatile
  6334  0C67                     l197:	
  6335  0C67  0008               	return
  6336  0C68                     __end_of_I2C_Stop:	
  6337                           
  6338                           	psect	text40
  6339  0C56                     __ptext40:	
  6340 ;; *************** function _I2C_Start *****************
  6341 ;; Defined at:
  6342 ;;		line 23 in file "I2C.c"
  6343 ;; Parameters:    Size  Location     Type
  6344 ;;		None
  6345 ;; Auto vars:     Size  Location     Type
  6346 ;;		None
  6347 ;; Return value:  Size  Location     Type
  6348 ;;                  1    wreg      void 
  6349 ;; Registers used:
  6350 ;;		wreg, status,2, status,0, pclath, cstack
  6351 ;; Tracked objects:
  6352 ;;		On entry : 0/0
  6353 ;;		On exit  : 0/0
  6354 ;;		Unchanged: 0/0
  6355 ;; Data sizes:     COMMON   BANK0   BANK1   BANK3   BANK2
  6356 ;;      Params:         0       0       0       0       0
  6357 ;;      Locals:         0       0       0       0       0
  6358 ;;      Temps:          0       0       0       0       0
  6359 ;;      Totals:         0       0       0       0       0
  6360 ;;Total ram usage:        0 bytes
  6361 ;; Hardware stack levels used:    1
  6362 ;; Hardware stack levels required when called:    5
  6363 ;; This function calls:
  6364 ;;		_I2C_Hold
  6365 ;; This function is called by:
  6366 ;;		_EEPROM_Write
  6367 ;; This function uses a non-reentrant model
  6368 ;;
  6369                           
  6370                           
  6371                           ;psect for function _I2C_Start
  6372  0C56                     _I2C_Start:	
  6373  0C56                     l2227:	
  6374                           ;incstack = 0
  6375                           ; Regs used in _I2C_Start: [wreg+status,2+status,0+pclath+cstack]
  6376                           
  6377                           
  6378                           ;I2C.c: 25:     I2C_Hold();
  6379  0C56  120A  158A  2480  120A  158A  	fcall	_I2C_Hold
  6380  0C5B                     l2229:	
  6381                           
  6382                           ;I2C.c: 26:       SSPCON2bits.SEN = 1 ;
  6383  0C5B  1683               	bsf	3,5	;RP0=1, select bank1
  6384  0C5C  1303               	bcf	3,6	;RP1=0, select bank1
  6385  0C5D  1411               	bsf	17,0	;volatile
  6386  0C5E                     l194:	
  6387  0C5E  0008               	return
  6388  0C5F                     __end_of_I2C_Start:	
  6389                           
  6390                           	psect	text41
  6391  0C80                     __ptext41:	
  6392 ;; *************** function _I2C_Hold *****************
  6393 ;; Defined at:
  6394 ;;		line 19 in file "I2C.c"
  6395 ;; Parameters:    Size  Location     Type
  6396 ;;		None
  6397 ;; Auto vars:     Size  Location     Type
  6398 ;;		None
  6399 ;; Return value:  Size  Location     Type
  6400 ;;                  1    wreg      void 
  6401 ;; Registers used:
  6402 ;;		wreg, status,2
  6403 ;; Tracked objects:
  6404 ;;		On entry : 0/0
  6405 ;;		On exit  : 0/0
  6406 ;;		Unchanged: 0/0
  6407 ;; Data sizes:     COMMON   BANK0   BANK1   BANK3   BANK2
  6408 ;;      Params:         0       0       0       0       0
  6409 ;;      Locals:         0       0       0       0       0
  6410 ;;      Temps:          0       0       0       0       0
  6411 ;;      Totals:         0       0       0       0       0
  6412 ;;Total ram usage:        0 bytes
  6413 ;; Hardware stack levels used:    1
  6414 ;; Hardware stack levels required when called:    4
  6415 ;; This function calls:
  6416 ;;		Nothing
  6417 ;; This function is called by:
  6418 ;;		_I2C_Start
  6419 ;;		_I2C_Stop
  6420 ;;		_I2C_Write_Byte
  6421 ;;		_I2C_Repeated_Start
  6422 ;; This function uses a non-reentrant model
  6423 ;;
  6424                           
  6425                           
  6426                           ;psect for function _I2C_Hold
  6427  0C80                     _I2C_Hold:	
  6428  0C80                     l1911:	
  6429                           ;incstack = 0
  6430                           ; Regs used in _I2C_Hold: [wreg+status,2]
  6431                           
  6432  0C80                     l1913:	
  6433                           ;I2C.c: 21:     while ( (SSPCON2 & 0b00011111) || (SSPSTAT & 0b00000100) ) ;
  6434                           
  6435  0C80  1683               	bsf	3,5	;RP0=1, select bank1
  6436  0C81  1303               	bcf	3,6	;RP1=0, select bank1
  6437  0C82  0811               	movf	17,w	;volatile
  6438  0C83  391F               	andlw	31
  6439  0C84  1D03               	btfss	3,2
  6440  0C85  2C87               	goto	u1351
  6441  0C86  2C88               	goto	u1350
  6442  0C87                     u1351:	
  6443  0C87  2C80               	goto	l1913
  6444  0C88                     u1350:	
  6445  0C88                     l1915:	
  6446  0C88  1914               	btfsc	20,2	;volatile
  6447  0C89  2C8B               	goto	u1361
  6448  0C8A  2C8C               	goto	u1360
  6449  0C8B                     u1361:	
  6450  0C8B  2C80               	goto	l1913
  6451  0C8C                     u1360:	
  6452  0C8C                     l191:	
  6453  0C8C  0008               	return
  6454  0C8D                     __end_of_I2C_Hold:	
  6455                           
  6456                           	psect	text42
  6457  0C2F                     __ptext42:	
  6458 ;; *************** function _EEPROM_Init *****************
  6459 ;; Defined at:
  6460 ;;		line 4 in file "EEPROM.c"
  6461 ;; Parameters:    Size  Location     Type
  6462 ;;		None
  6463 ;; Auto vars:     Size  Location     Type
  6464 ;;		None
  6465 ;; Return value:  Size  Location     Type
  6466 ;;                  1    wreg      void 
  6467 ;; Registers used:
  6468 ;;		wreg, status,2, status,0, pclath, cstack
  6469 ;; Tracked objects:
  6470 ;;		On entry : 0/0
  6471 ;;		On exit  : 0/0
  6472 ;;		Unchanged: 0/0
  6473 ;; Data sizes:     COMMON   BANK0   BANK1   BANK3   BANK2
  6474 ;;      Params:         0       0       0       0       0
  6475 ;;      Locals:         0       0       0       0       0
  6476 ;;      Temps:          0       0       0       0       0
  6477 ;;      Totals:         0       0       0       0       0
  6478 ;;Total ram usage:        0 bytes
  6479 ;; Hardware stack levels used:    1
  6480 ;; Hardware stack levels required when called:    6
  6481 ;; This function calls:
  6482 ;;		_I2C_Init
  6483 ;; This function is called by:
  6484 ;;		_Sys_Init
  6485 ;; This function uses a non-reentrant model
  6486 ;;
  6487                           
  6488                           
  6489                           ;psect for function _EEPROM_Init
  6490  0C2F                     _EEPROM_Init:	
  6491  0C2F                     l2395:	
  6492                           ;incstack = 0
  6493                           ; Regs used in _EEPROM_Init: [wreg+status,2+status,0+pclath+cstack]
  6494                           
  6495                           
  6496                           ;EEPROM.c: 5:  I2C_Init(100);
  6497  0C2F  3064               	movlw	100
  6498  0C30  120A  158A  2729  120A  158A  	fcall	_I2C_Init
  6499  0C35                     l58:	
  6500  0C35  0008               	return
  6501  0C36                     __end_of_EEPROM_Init:	
  6502                           
  6503                           	psect	text43
  6504  0F29                     __ptext43:	
  6505 ;; *************** function _I2C_Init *****************
  6506 ;; Defined at:
  6507 ;;		line 6 in file "I2C.c"
  6508 ;; Parameters:    Size  Location     Type
  6509 ;;  feq_K           1    wreg     unsigned char 
  6510 ;; Auto vars:     Size  Location     Type
  6511 ;;  feq_K           1   23[BANK0 ] unsigned char 
  6512 ;; Return value:  Size  Location     Type
  6513 ;;                  1    wreg      void 
  6514 ;; Registers used:
  6515 ;;		wreg, status,2, status,0, pclath, cstack
  6516 ;; Tracked objects:
  6517 ;;		On entry : 0/0
  6518 ;;		On exit  : 0/0
  6519 ;;		Unchanged: 0/0
  6520 ;; Data sizes:     COMMON   BANK0   BANK1   BANK3   BANK2
  6521 ;;      Params:         0       0       0       0       0
  6522 ;;      Locals:         0       1       0       0       0
  6523 ;;      Temps:          0       2       0       0       0
  6524 ;;      Totals:         0       3       0       0       0
  6525 ;;Total ram usage:        3 bytes
  6526 ;; Hardware stack levels used:    1
  6527 ;; Hardware stack levels required when called:    5
  6528 ;; This function calls:
  6529 ;;		___aldiv
  6530 ;;		___wmul
  6531 ;; This function is called by:
  6532 ;;		_EEPROM_Init
  6533 ;; This function uses a non-reentrant model
  6534 ;;
  6535                           
  6536                           
  6537                           ;psect for function _I2C_Init
  6538  0F29                     _I2C_Init:	
  6539                           
  6540                           ;incstack = 0
  6541                           ; Regs used in _I2C_Init: [wreg+status,2+status,0+pclath+cstack]
  6542                           ;I2C_Init@feq_K stored from wreg
  6543  0F29  1283               	bcf	3,5	;RP0=0, select bank0
  6544  0F2A  1303               	bcf	3,6	;RP1=0, select bank0
  6545  0F2B  00B7               	movwf	I2C_Init@feq_K
  6546  0F2C                     l2217:	
  6547                           
  6548                           ;I2C.c: 6: void I2C_Init(uint8_t feq_K);I2C.c: 7: {;I2C.c: 9:      TRISCbits.TRISC3 = 1;
  6549  0F2C  1683               	bsf	3,5	;RP0=1, select bank1
  6550  0F2D  1303               	bcf	3,6	;RP1=0, select bank1
  6551  0F2E  1587               	bsf	7,3	;volatile
  6552                           
  6553                           ;I2C.c: 10:      TRISCbits.TRISC4 = 1;
  6554  0F2F  1607               	bsf	7,4	;volatile
  6555  0F30                     l2219:	
  6556                           
  6557                           ;I2C.c: 13:   SSPCON = 0b00101000;
  6558  0F30  3028               	movlw	40
  6559  0F31  1283               	bcf	3,5	;RP0=0, select bank0
  6560  0F32  1303               	bcf	3,6	;RP1=0, select bank0
  6561  0F33  0094               	movwf	20	;volatile
  6562  0F34                     l2221:	
  6563                           
  6564                           ;I2C.c: 14:   SSPCON2 = 0b00000000;
  6565  0F34  1683               	bsf	3,5	;RP0=1, select bank1
  6566  0F35  1303               	bcf	3,6	;RP1=0, select bank1
  6567  0F36  0191               	clrf	17	;volatile
  6568  0F37                     l2223:	
  6569                           
  6570                           ;I2C.c: 15:   SSPADD = (8000000/(4*feq_K*100))-1;
  6571  0F37  3064               	movlw	100
  6572  0F38  1283               	bcf	3,5	;RP0=0, select bank0
  6573  0F39  1303               	bcf	3,6	;RP1=0, select bank0
  6574  0F3A  00A2               	movwf	___wmul@multiplicand
  6575  0F3B  3000               	movlw	0
  6576  0F3C  00A3               	movwf	___wmul@multiplicand+1
  6577  0F3D  0837               	movf	I2C_Init@feq_K,w
  6578  0F3E  00B5               	movwf	??_I2C_Init
  6579  0F3F  01B6               	clrf	??_I2C_Init+1
  6580  0F40  1003               	clrc
  6581  0F41  0DB5               	rlf	??_I2C_Init,f
  6582  0F42  0DB6               	rlf	??_I2C_Init+1,f
  6583  0F43  1003               	clrc
  6584  0F44  0DB5               	rlf	??_I2C_Init,f
  6585  0F45  0DB6               	rlf	??_I2C_Init+1,f
  6586  0F46  0835               	movf	??_I2C_Init,w
  6587  0F47  00A0               	movwf	___wmul@multiplier
  6588  0F48  0836               	movf	??_I2C_Init+1,w
  6589  0F49  00A1               	movwf	___wmul@multiplier+1
  6590  0F4A  120A  158A  258D  120A  158A  	fcall	___wmul
  6591  0F4F  1283               	bcf	3,5	;RP0=0, select bank0
  6592  0F50  1303               	bcf	3,6	;RP1=0, select bank0
  6593  0F51  0820               	movf	?___wmul,w
  6594  0F52  00A6               	movwf	___aldiv@divisor
  6595  0F53  0821               	movf	?___wmul+1,w
  6596  0F54  00A7               	movwf	___aldiv@divisor+1
  6597  0F55  3000               	movlw	0
  6598  0F56  1BA7               	btfsc	___aldiv@divisor+1,7
  6599  0F57  30FF               	movlw	255
  6600  0F58  00A8               	movwf	___aldiv@divisor+2
  6601  0F59  00A9               	movwf	___aldiv@divisor+3
  6602  0F5A  3000               	movlw	0
  6603  0F5B  00AD               	movwf	___aldiv@dividend+3
  6604  0F5C  307A               	movlw	122
  6605  0F5D  00AC               	movwf	___aldiv@dividend+2
  6606  0F5E  3012               	movlw	18
  6607  0F5F  00AB               	movwf	___aldiv@dividend+1
  6608  0F60  3000               	movlw	0
  6609  0F61  00AA               	movwf	___aldiv@dividend
  6610  0F62  120A  118A  2449  120A  158A  	fcall	___aldiv
  6611  0F67  1283               	bcf	3,5	;RP0=0, select bank0
  6612  0F68  1303               	bcf	3,6	;RP1=0, select bank0
  6613  0F69  0826               	movf	?___aldiv,w
  6614  0F6A  3EFF               	addlw	255
  6615  0F6B  1683               	bsf	3,5	;RP0=1, select bank1
  6616  0F6C  1303               	bcf	3,6	;RP1=0, select bank1
  6617  0F6D  0093               	movwf	19	;volatile
  6618  0F6E                     l2225:	
  6619                           
  6620                           ;I2C.c: 16:   SSPSTAT = 0b00000000;
  6621  0F6E  0194               	clrf	20	;volatile
  6622  0F6F                     l185:	
  6623  0F6F  0008               	return
  6624  0F70                     __end_of_I2C_Init:	
  6625                           
  6626                           	psect	text44
  6627  0D8D                     __ptext44:	
  6628 ;; *************** function ___wmul *****************
  6629 ;; Defined at:
  6630 ;;		line 15 in file "C:\Program Files (x86)\Microchip\xc8\v2.10\pic\sources\c90\common\Umul16.c"
  6631 ;; Parameters:    Size  Location     Type
  6632 ;;  multiplier      2    0[BANK0 ] unsigned int 
  6633 ;;  multiplicand    2    2[BANK0 ] unsigned int 
  6634 ;; Auto vars:     Size  Location     Type
  6635 ;;  product         2    4[BANK0 ] unsigned int 
  6636 ;; Return value:  Size  Location     Type
  6637 ;;                  2    0[BANK0 ] unsigned int 
  6638 ;; Registers used:
  6639 ;;		wreg, status,2, status,0
  6640 ;; Tracked objects:
  6641 ;;		On entry : 0/0
  6642 ;;		On exit  : 0/0
  6643 ;;		Unchanged: 0/0
  6644 ;; Data sizes:     COMMON   BANK0   BANK1   BANK3   BANK2
  6645 ;;      Params:         0       4       0       0       0
  6646 ;;      Locals:         0       2       0       0       0
  6647 ;;      Temps:          0       0       0       0       0
  6648 ;;      Totals:         0       6       0       0       0
  6649 ;;Total ram usage:        6 bytes
  6650 ;; Hardware stack levels used:    1
  6651 ;; Hardware stack levels required when called:    4
  6652 ;; This function calls:
  6653 ;;		Nothing
  6654 ;; This function is called by:
  6655 ;;		_I2C_Init
  6656 ;; This function uses a non-reentrant model
  6657 ;;
  6658                           
  6659                           
  6660                           ;psect for function ___wmul
  6661  0D8D                     ___wmul:	
  6662  0D8D                     l1917:	
  6663                           ;incstack = 0
  6664                           ; Regs used in ___wmul: [wreg+status,2+status,0]
  6665                           
  6666  0D8D  1283               	bcf	3,5	;RP0=0, select bank0
  6667  0D8E  1303               	bcf	3,6	;RP1=0, select bank0
  6668  0D8F  01A4               	clrf	___wmul@product
  6669  0D90  01A5               	clrf	___wmul@product+1
  6670  0D91                     l1919:	
  6671  0D91  1C20               	btfss	___wmul@multiplier,0
  6672  0D92  2D94               	goto	u1371
  6673  0D93  2D95               	goto	u1370
  6674  0D94                     u1371:	
  6675  0D94  2D9B               	goto	l561
  6676  0D95                     u1370:	
  6677  0D95                     l1921:	
  6678  0D95  0822               	movf	___wmul@multiplicand,w
  6679  0D96  07A4               	addwf	___wmul@product,f
  6680  0D97  1803               	skipnc
  6681  0D98  0AA5               	incf	___wmul@product+1,f
  6682  0D99  0823               	movf	___wmul@multiplicand+1,w
  6683  0D9A  07A5               	addwf	___wmul@product+1,f
  6684  0D9B                     l561:	
  6685  0D9B  3001               	movlw	1
  6686  0D9C                     u1385:	
  6687  0D9C  1003               	clrc
  6688  0D9D  0DA2               	rlf	___wmul@multiplicand,f
  6689  0D9E  0DA3               	rlf	___wmul@multiplicand+1,f
  6690  0D9F  3EFF               	addlw	-1
  6691  0DA0  1D03               	skipz
  6692  0DA1  2D9C               	goto	u1385
  6693  0DA2                     l1923:	
  6694  0DA2  3001               	movlw	1
  6695  0DA3                     u1395:	
  6696  0DA3  1003               	clrc
  6697  0DA4  0CA1               	rrf	___wmul@multiplier+1,f
  6698  0DA5  0CA0               	rrf	___wmul@multiplier,f
  6699  0DA6  3EFF               	addlw	-1
  6700  0DA7  1D03               	skipz
  6701  0DA8  2DA3               	goto	u1395
  6702  0DA9                     l1925:	
  6703  0DA9  0820               	movf	___wmul@multiplier,w
  6704  0DAA  0421               	iorwf	___wmul@multiplier+1,w
  6705  0DAB  1D03               	btfss	3,2
  6706  0DAC  2DAE               	goto	u1401
  6707  0DAD  2DAF               	goto	u1400
  6708  0DAE                     u1401:	
  6709  0DAE  2D91               	goto	l1919
  6710  0DAF                     u1400:	
  6711  0DAF                     l1927:	
  6712  0DAF  0825               	movf	___wmul@product+1,w
  6713  0DB0  00A1               	movwf	?___wmul+1
  6714  0DB1  0824               	movf	___wmul@product,w
  6715  0DB2  00A0               	movwf	?___wmul
  6716  0DB3                     l563:	
  6717  0DB3  0008               	return
  6718  0DB4                     __end_of___wmul:	
  6719                           
  6720                           	psect	text45
  6721  0449                     __ptext45:	
  6722 ;; *************** function ___aldiv *****************
  6723 ;; Defined at:
  6724 ;;		line 5 in file "C:\Program Files (x86)\Microchip\xc8\v2.10\pic\sources\c90\common\aldiv.c"
  6725 ;; Parameters:    Size  Location     Type
  6726 ;;  divisor         4    6[BANK0 ] long 
  6727 ;;  dividend        4   10[BANK0 ] long 
  6728 ;; Auto vars:     Size  Location     Type
  6729 ;;  quotient        4   17[BANK0 ] long 
  6730 ;;  sign            1   16[BANK0 ] unsigned char 
  6731 ;;  counter         1   15[BANK0 ] unsigned char 
  6732 ;; Return value:  Size  Location     Type
  6733 ;;                  4    6[BANK0 ] long 
  6734 ;; Registers used:
  6735 ;;		wreg, status,2, status,0
  6736 ;; Tracked objects:
  6737 ;;		On entry : 0/0
  6738 ;;		On exit  : 0/0
  6739 ;;		Unchanged: 0/0
  6740 ;; Data sizes:     COMMON   BANK0   BANK1   BANK3   BANK2
  6741 ;;      Params:         0       8       0       0       0
  6742 ;;      Locals:         0       6       0       0       0
  6743 ;;      Temps:          0       1       0       0       0
  6744 ;;      Totals:         0      15       0       0       0
  6745 ;;Total ram usage:       15 bytes
  6746 ;; Hardware stack levels used:    1
  6747 ;; Hardware stack levels required when called:    4
  6748 ;; This function calls:
  6749 ;;		Nothing
  6750 ;; This function is called by:
  6751 ;;		_I2C_Init
  6752 ;; This function uses a non-reentrant model
  6753 ;;
  6754                           
  6755                           
  6756                           ;psect for function ___aldiv
  6757  0449                     ___aldiv:	
  6758  0449                     l1931:	
  6759                           ;incstack = 0
  6760                           ; Regs used in ___aldiv: [wreg+status,2+status,0]
  6761                           
  6762  0449  1283               	bcf	3,5	;RP0=0, select bank0
  6763  044A  1303               	bcf	3,6	;RP1=0, select bank0
  6764  044B  01B0               	clrf	___aldiv@sign
  6765  044C                     l1933:	
  6766  044C  1FA9               	btfss	___aldiv@divisor+3,7
  6767  044D  2C4F               	goto	u1411
  6768  044E  2C50               	goto	u1410
  6769  044F                     u1411:	
  6770  044F  2C5D               	goto	l626
  6771  0450                     u1410:	
  6772  0450                     l1935:	
  6773  0450  09A6               	comf	___aldiv@divisor,f
  6774  0451  09A7               	comf	___aldiv@divisor+1,f
  6775  0452  09A8               	comf	___aldiv@divisor+2,f
  6776  0453  09A9               	comf	___aldiv@divisor+3,f
  6777  0454  0AA6               	incf	___aldiv@divisor,f
  6778  0455  1903               	skipnz
  6779  0456  0AA7               	incf	___aldiv@divisor+1,f
  6780  0457  1903               	skipnz
  6781  0458  0AA8               	incf	___aldiv@divisor+2,f
  6782  0459  1903               	skipnz
  6783  045A  0AA9               	incf	___aldiv@divisor+3,f
  6784  045B  01B0               	clrf	___aldiv@sign
  6785  045C  0AB0               	incf	___aldiv@sign,f
  6786  045D                     l626:	
  6787  045D  1FAD               	btfss	___aldiv@dividend+3,7
  6788  045E  2C60               	goto	u1421
  6789  045F  2C61               	goto	u1420
  6790  0460                     u1421:	
  6791  0460  2C70               	goto	l1941
  6792  0461                     u1420:	
  6793  0461                     l1937:	
  6794  0461  09AA               	comf	___aldiv@dividend,f
  6795  0462  09AB               	comf	___aldiv@dividend+1,f
  6796  0463  09AC               	comf	___aldiv@dividend+2,f
  6797  0464  09AD               	comf	___aldiv@dividend+3,f
  6798  0465  0AAA               	incf	___aldiv@dividend,f
  6799  0466  1903               	skipnz
  6800  0467  0AAB               	incf	___aldiv@dividend+1,f
  6801  0468  1903               	skipnz
  6802  0469  0AAC               	incf	___aldiv@dividend+2,f
  6803  046A  1903               	skipnz
  6804  046B  0AAD               	incf	___aldiv@dividend+3,f
  6805  046C                     l1939:	
  6806  046C  3001               	movlw	1
  6807  046D  00AE               	movwf	??___aldiv
  6808  046E  082E               	movf	??___aldiv,w
  6809  046F  06B0               	xorwf	___aldiv@sign,f
  6810  0470                     l1941:	
  6811  0470  3000               	movlw	0
  6812  0471  00B4               	movwf	___aldiv@quotient+3
  6813  0472  3000               	movlw	0
  6814  0473  00B3               	movwf	___aldiv@quotient+2
  6815  0474  3000               	movlw	0
  6816  0475  00B2               	movwf	___aldiv@quotient+1
  6817  0476  3000               	movlw	0
  6818  0477  00B1               	movwf	___aldiv@quotient
  6819  0478                     l1943:	
  6820  0478  0829               	movf	___aldiv@divisor+3,w
  6821  0479  0428               	iorwf	___aldiv@divisor+2,w
  6822  047A  0427               	iorwf	___aldiv@divisor+1,w
  6823  047B  0426               	iorwf	___aldiv@divisor,w
  6824  047C  1903               	skipnz
  6825  047D  2C7F               	goto	u1431
  6826  047E  2C80               	goto	u1430
  6827  047F                     u1431:	
  6828  047F  2CCD               	goto	l1963
  6829  0480                     u1430:	
  6830  0480                     l1945:	
  6831  0480  01AF               	clrf	___aldiv@counter
  6832  0481  0AAF               	incf	___aldiv@counter,f
  6833  0482  2C90               	goto	l1949
  6834  0483                     l1947:	
  6835  0483  3001               	movlw	1
  6836  0484  00AE               	movwf	??___aldiv
  6837  0485                     u1445:	
  6838  0485  1003               	clrc
  6839  0486  0DA6               	rlf	___aldiv@divisor,f
  6840  0487  0DA7               	rlf	___aldiv@divisor+1,f
  6841  0488  0DA8               	rlf	___aldiv@divisor+2,f
  6842  0489  0DA9               	rlf	___aldiv@divisor+3,f
  6843  048A  0BAE               	decfsz	??___aldiv,f
  6844  048B  2C85               	goto	u1445
  6845  048C  3001               	movlw	1
  6846  048D  00AE               	movwf	??___aldiv
  6847  048E  082E               	movf	??___aldiv,w
  6848  048F  07AF               	addwf	___aldiv@counter,f
  6849  0490                     l1949:	
  6850  0490  1FA9               	btfss	___aldiv@divisor+3,7
  6851  0491  2C93               	goto	u1451
  6852  0492  2C94               	goto	u1450
  6853  0493                     u1451:	
  6854  0493  2C83               	goto	l1947
  6855  0494                     u1450:	
  6856  0494                     l1951:	
  6857  0494  3001               	movlw	1
  6858  0495  00AE               	movwf	??___aldiv
  6859  0496                     u1465:	
  6860  0496  1003               	clrc
  6861  0497  0DB1               	rlf	___aldiv@quotient,f
  6862  0498  0DB2               	rlf	___aldiv@quotient+1,f
  6863  0499  0DB3               	rlf	___aldiv@quotient+2,f
  6864  049A  0DB4               	rlf	___aldiv@quotient+3,f
  6865  049B  0BAE               	decfsz	??___aldiv,f
  6866  049C  2C96               	goto	u1465
  6867  049D                     l1953:	
  6868  049D  0829               	movf	___aldiv@divisor+3,w
  6869  049E  022D               	subwf	___aldiv@dividend+3,w
  6870  049F  1D03               	skipz
  6871  04A0  2CAB               	goto	u1475
  6872  04A1  0828               	movf	___aldiv@divisor+2,w
  6873  04A2  022C               	subwf	___aldiv@dividend+2,w
  6874  04A3  1D03               	skipz
  6875  04A4  2CAB               	goto	u1475
  6876  04A5  0827               	movf	___aldiv@divisor+1,w
  6877  04A6  022B               	subwf	___aldiv@dividend+1,w
  6878  04A7  1D03               	skipz
  6879  04A8  2CAB               	goto	u1475
  6880  04A9  0826               	movf	___aldiv@divisor,w
  6881  04AA  022A               	subwf	___aldiv@dividend,w
  6882  04AB                     u1475:	
  6883  04AB  1C03               	skipc
  6884  04AC  2CAE               	goto	u1471
  6885  04AD  2CAF               	goto	u1470
  6886  04AE                     u1471:	
  6887  04AE  2CBE               	goto	l1959
  6888  04AF                     u1470:	
  6889  04AF                     l1955:	
  6890  04AF  0826               	movf	___aldiv@divisor,w
  6891  04B0  02AA               	subwf	___aldiv@dividend,f
  6892  04B1  0827               	movf	___aldiv@divisor+1,w
  6893  04B2  1C03               	skipc
  6894  04B3  0F27               	incfsz	___aldiv@divisor+1,w
  6895  04B4  02AB               	subwf	___aldiv@dividend+1,f
  6896  04B5  0828               	movf	___aldiv@divisor+2,w
  6897  04B6  1C03               	skipc
  6898  04B7  0F28               	incfsz	___aldiv@divisor+2,w
  6899  04B8  02AC               	subwf	___aldiv@dividend+2,f
  6900  04B9  0829               	movf	___aldiv@divisor+3,w
  6901  04BA  1C03               	skipc
  6902  04BB  0F29               	incfsz	___aldiv@divisor+3,w
  6903  04BC  02AD               	subwf	___aldiv@dividend+3,f
  6904  04BD                     l1957:	
  6905  04BD  1431               	bsf	___aldiv@quotient,0
  6906  04BE                     l1959:	
  6907  04BE  3001               	movlw	1
  6908  04BF                     u1485:	
  6909  04BF  1003               	clrc
  6910  04C0  0CA9               	rrf	___aldiv@divisor+3,f
  6911  04C1  0CA8               	rrf	___aldiv@divisor+2,f
  6912  04C2  0CA7               	rrf	___aldiv@divisor+1,f
  6913  04C3  0CA6               	rrf	___aldiv@divisor,f
  6914  04C4  3EFF               	addlw	-1
  6915  04C5  1D03               	skipz
  6916  04C6  2CBF               	goto	u1485
  6917  04C7                     l1961:	
  6918  04C7  3001               	movlw	1
  6919  04C8  02AF               	subwf	___aldiv@counter,f
  6920  04C9  1D03               	btfss	3,2
  6921  04CA  2CCC               	goto	u1491
  6922  04CB  2CCD               	goto	u1490
  6923  04CC                     u1491:	
  6924  04CC  2C94               	goto	l1951
  6925  04CD                     u1490:	
  6926  04CD                     l1963:	
  6927  04CD  0830               	movf	___aldiv@sign,w
  6928  04CE  1903               	btfsc	3,2
  6929  04CF  2CD1               	goto	u1501
  6930  04D0  2CD2               	goto	u1500
  6931  04D1                     u1501:	
  6932  04D1  2CDD               	goto	l1967
  6933  04D2                     u1500:	
  6934  04D2                     l1965:	
  6935  04D2  09B1               	comf	___aldiv@quotient,f
  6936  04D3  09B2               	comf	___aldiv@quotient+1,f
  6937  04D4  09B3               	comf	___aldiv@quotient+2,f
  6938  04D5  09B4               	comf	___aldiv@quotient+3,f
  6939  04D6  0AB1               	incf	___aldiv@quotient,f
  6940  04D7  1903               	skipnz
  6941  04D8  0AB2               	incf	___aldiv@quotient+1,f
  6942  04D9  1903               	skipnz
  6943  04DA  0AB3               	incf	___aldiv@quotient+2,f
  6944  04DB  1903               	skipnz
  6945  04DC  0AB4               	incf	___aldiv@quotient+3,f
  6946  04DD                     l1967:	
  6947  04DD  0834               	movf	___aldiv@quotient+3,w
  6948  04DE  00A9               	movwf	?___aldiv+3
  6949  04DF  0833               	movf	___aldiv@quotient+2,w
  6950  04E0  00A8               	movwf	?___aldiv+2
  6951  04E1  0832               	movf	___aldiv@quotient+1,w
  6952  04E2  00A7               	movwf	?___aldiv+1
  6953  04E3  0831               	movf	___aldiv@quotient,w
  6954  04E4  00A6               	movwf	?___aldiv
  6955  04E5                     l636:	
  6956  04E5  0008               	return
  6957  04E6                     __end_of___aldiv:	
  6958                           
  6959                           	psect	text46
  6960  0C23                     __ptext46:	
  6961 ;; *************** function _Buttons_Init *****************
  6962 ;; Defined at:
  6963 ;;		line 6 in file "Buttons.c"
  6964 ;; Parameters:    Size  Location     Type
  6965 ;;		None
  6966 ;; Auto vars:     Size  Location     Type
  6967 ;;		None
  6968 ;; Return value:  Size  Location     Type
  6969 ;;                  1    wreg      void 
  6970 ;; Registers used:
  6971 ;;		None
  6972 ;; Tracked objects:
  6973 ;;		On entry : 0/0
  6974 ;;		On exit  : 0/0
  6975 ;;		Unchanged: 0/0
  6976 ;; Data sizes:     COMMON   BANK0   BANK1   BANK3   BANK2
  6977 ;;      Params:         0       0       0       0       0
  6978 ;;      Locals:         0       0       0       0       0
  6979 ;;      Temps:          0       0       0       0       0
  6980 ;;      Totals:         0       0       0       0       0
  6981 ;;Total ram usage:        0 bytes
  6982 ;; Hardware stack levels used:    1
  6983 ;; Hardware stack levels required when called:    4
  6984 ;; This function calls:
  6985 ;;		Nothing
  6986 ;; This function is called by:
  6987 ;;		_Sys_Init
  6988 ;; This function uses a non-reentrant model
  6989 ;;
  6990                           
  6991                           
  6992                           ;psect for function _Buttons_Init
  6993  0C23                     _Buttons_Init:	
  6994  0C23                     l2351:	
  6995                           ;incstack = 0
  6996                           ; Regs used in _Buttons_Init: []
  6997                           
  6998                           
  6999                           ;Buttons.c: 9:           TRISBbits.TRISB0 = 1 ;
  7000  0C23  1683               	bsf	3,5	;RP0=1, select bank1
  7001  0C24  1303               	bcf	3,6	;RP1=0, select bank1
  7002  0C25  1406               	bsf	6,0	;volatile
  7003                           
  7004                           ;Buttons.c: 10:           TRISBbits.TRISB1 = 1 ;
  7005  0C26  1486               	bsf	6,1	;volatile
  7006                           
  7007                           ;Buttons.c: 11:           TRISBbits.TRISB2 = 1 ;
  7008  0C27  1506               	bsf	6,2	;volatile
  7009  0C28                     l21:	
  7010  0C28  0008               	return
  7011  0C29                     __end_of_Buttons_Init:	
  7012                           
  7013                           	psect	text47
  7014  05E3                     __ptext47:	
  7015 ;; *************** function _System_Interrupts *****************
  7016 ;; Defined at:
  7017 ;;		line 30 in file "Electric_Water_Heater.c"
  7018 ;; Parameters:    Size  Location     Type
  7019 ;;		None
  7020 ;; Auto vars:     Size  Location     Type
  7021 ;;		None
  7022 ;; Return value:  Size  Location     Type
  7023 ;;                  1    wreg      void 
  7024 ;; Registers used:
  7025 ;;		wreg, status,2, status,0, pclath, cstack
  7026 ;; Tracked objects:
  7027 ;;		On entry : 0/0
  7028 ;;		On exit  : 0/0
  7029 ;;		Unchanged: 0/0
  7030 ;; Data sizes:     COMMON   BANK0   BANK1   BANK3   BANK2
  7031 ;;      Params:         0       0       0       0       0
  7032 ;;      Locals:         0       0       0       0       0
  7033 ;;      Temps:          4       0       0       0       0
  7034 ;;      Totals:         4       0       0       0       0
  7035 ;;Total ram usage:        4 bytes
  7036 ;; Hardware stack levels used:    1
  7037 ;; Hardware stack levels required when called:    3
  7038 ;; This function calls:
  7039 ;;		_EEPROM_Read
  7040 ;; This function is called by:
  7041 ;;		Interrupt level 1
  7042 ;; This function uses a non-reentrant model
  7043 ;;
  7044                           
  7045                           
  7046                           ;psect for function _System_Interrupts
  7047  05E3                     _System_Interrupts:	
  7048  05E3                     i1l2579:	
  7049                           
  7050                           ;Electric_Water_Heater.c: 37:         if (INTF==1)
  7051  05E3  1C8B               	btfss	11,1	;volatile
  7052  05E4  2DE6               	goto	u250_21
  7053  05E5  2DE7               	goto	u250_20
  7054  05E6                     u250_21:	
  7055  05E6  2E0C               	goto	i1l2595
  7056  05E7                     u250_20:	
  7057  05E7                     i1l2581:	
  7058                           
  7059                           ;Electric_Water_Heater.c: 38:         {;Electric_Water_Heater.c: 39:             if(Curr
      +                          ent_State == 0)
  7060  05E7  087A               	movf	_Current_State,w	;volatile
  7061  05E8  1D03               	btfss	3,2
  7062  05E9  2DEB               	goto	u251_21
  7063  05EA  2DEC               	goto	u251_20
  7064  05EB                     u251_21:	
  7065  05EB  2DFF               	goto	i1l2587
  7066  05EC                     u251_20:	
  7067  05EC                     i1l2583:	
  7068                           
  7069                           ;Electric_Water_Heater.c: 40:             {;Electric_Water_Heater.c: 42:                
      +                           Current_State = 1 ;
  7070  05EC  3001               	movlw	1
  7071  05ED  00F4               	movwf	??_System_Interrupts
  7072  05EE  0874               	movf	??_System_Interrupts,w
  7073  05EF  00FA               	movwf	_Current_State	;volatile
  7074  05F0                     i1l2585:	
  7075                           
  7076                           ;Electric_Water_Heater.c: 44:                 Desired_Temp = EEPROM_Read(0x00);
  7077  05F0  3000               	movlw	0
  7078  05F1  120A  158A  2542  120A  118A  	fcall	_EEPROM_Read
  7079  05F6  00F4               	movwf	??_System_Interrupts
  7080  05F7  01F5               	clrf	??_System_Interrupts+1
  7081  05F8  0874               	movf	??_System_Interrupts,w
  7082  05F9  1283               	bcf	3,5	;RP0=0, select bank0
  7083  05FA  1303               	bcf	3,6	;RP1=0, select bank0
  7084  05FB  00E4               	movwf	_Desired_Temp
  7085  05FC  0875               	movf	??_System_Interrupts+1,w
  7086  05FD  00E5               	movwf	_Desired_Temp+1
  7087                           
  7088                           ;Electric_Water_Heater.c: 45:             }
  7089  05FE  2E0B               	goto	i1l2593
  7090  05FF                     i1l2587:	
  7091  05FF  037A               	decf	_Current_State,w	;volatile
  7092  0600  1903               	btfsc	3,2
  7093  0601  2E03               	goto	u252_21
  7094  0602  2E04               	goto	u252_20
  7095  0603                     u252_21:	
  7096  0603  2E0A               	goto	i1l2591
  7097  0604                     u252_20:	
  7098  0604                     i1l2589:	
  7099  0604  3002               	movlw	2
  7100  0605  067A               	xorwf	_Current_State,w	;volatile
  7101  0606  1D03               	btfss	3,2
  7102  0607  2E09               	goto	u253_21
  7103  0608  2E0A               	goto	u253_20
  7104  0609                     u253_21:	
  7105  0609  2E0B               	goto	i1l2593
  7106  060A                     u253_20:	
  7107  060A                     i1l2591:	
  7108                           
  7109                           ;Electric_Water_Heater.c: 47:             {;Electric_Water_Heater.c: 49:                
      +                           Current_State = 0 ;
  7110  060A  01FA               	clrf	_Current_State	;volatile
  7111  060B                     i1l2593:	
  7112                           
  7113                           ;Electric_Water_Heater.c: 51:            INTF = 0;
  7114  060B  108B               	bcf	11,1	;volatile
  7115  060C                     i1l2595:	
  7116                           
  7117                           ;Electric_Water_Heater.c: 64:         if (PIR1bits.TMR1IF ==1){
  7118  060C  1283               	bcf	3,5	;RP0=0, select bank0
  7119  060D  1303               	bcf	3,6	;RP1=0, select bank0
  7120  060E  1C0C               	btfss	12,0	;volatile
  7121  060F  2E11               	goto	u254_21
  7122  0610  2E12               	goto	u254_20
  7123  0611                     u254_21:	
  7124  0611  2E3A               	goto	i1l2613
  7125  0612                     u254_20:	
  7126  0612                     i1l2597:	
  7127                           
  7128                           ;Electric_Water_Heater.c: 66:             if( ( Current_State == 2) || ( Current_State =
      +                          = 1) ){
  7129  0612  3002               	movlw	2
  7130  0613  067A               	xorwf	_Current_State,w	;volatile
  7131  0614  1903               	btfsc	3,2
  7132  0615  2E17               	goto	u255_21
  7133  0616  2E18               	goto	u255_20
  7134  0617                     u255_21:	
  7135  0617  2E1D               	goto	i1l2601
  7136  0618                     u255_20:	
  7137  0618                     i1l2599:	
  7138  0618  037A               	decf	_Current_State,w	;volatile
  7139  0619  1D03               	btfss	3,2
  7140  061A  2E1C               	goto	u256_21
  7141  061B  2E1D               	goto	u256_20
  7142  061C                     u256_21:	
  7143  061C  2E35               	goto	i1l118
  7144  061D                     u256_20:	
  7145  061D                     i1l2601:	
  7146                           
  7147                           ;Electric_Water_Heater.c: 68:                 SettingMode_counter ++;
  7148  061D  3001               	movlw	1
  7149  061E  00F4               	movwf	??_System_Interrupts
  7150  061F  0874               	movf	??_System_Interrupts,w
  7151  0620  07F9               	addwf	_SettingMode_counter,f	;volatile
  7152  0621                     i1l2603:	
  7153                           
  7154                           ;Electric_Water_Heater.c: 70:                 if(SettingMode_counter % 4 == 0 ){
  7155  0621  0879               	movf	_SettingMode_counter,w	;volatile
  7156  0622  3903               	andlw	3
  7157  0623  1D03               	btfss	3,2
  7158  0624  2E26               	goto	u257_21
  7159  0625  2E27               	goto	u257_20
  7160  0626                     u257_21:	
  7161  0626  2E2B               	goto	i1l2607
  7162  0627                     u257_20:	
  7163  0627                     i1l2605:	
  7164                           
  7165                           ;Electric_Water_Heater.c: 71:                     Toggle_indication ^= 1 ;
  7166  0627  3001               	movlw	1
  7167  0628  00F4               	movwf	??_System_Interrupts
  7168  0629  0874               	movf	??_System_Interrupts,w
  7169  062A  06E6               	xorwf	_Toggle_indication,f	;volatile
  7170  062B                     i1l2607:	
  7171                           
  7172                           ;Electric_Water_Heater.c: 74:                 if(SettingMode_counter > 20 ){
  7173  062B  3015               	movlw	21
  7174  062C  0279               	subwf	_SettingMode_counter,w	;volatile
  7175  062D  1C03               	skipc
  7176  062E  2E30               	goto	u258_21
  7177  062F  2E31               	goto	u258_20
  7178  0630                     u258_21:	
  7179  0630  2E35               	goto	i1l118
  7180  0631                     u258_20:	
  7181  0631                     i1l2609:	
  7182                           
  7183                           ;Electric_Water_Heater.c: 75:                     Current_State = 1 ;
  7184  0631  3001               	movlw	1
  7185  0632  00F4               	movwf	??_System_Interrupts
  7186  0633  0874               	movf	??_System_Interrupts,w
  7187  0634  00FA               	movwf	_Current_State	;volatile
  7188  0635                     i1l118:	
  7189                           ;Electric_Water_Heater.c: 77:             }
  7190                           
  7191                           
  7192                           ;Electric_Water_Heater.c: 80:                 TMR1L = 0xDC;
  7193  0635  30DC               	movlw	220
  7194  0636  008E               	movwf	14	;volatile
  7195                           
  7196                           ;Electric_Water_Heater.c: 81:                 TMR1H = 0x0B ;
  7197  0637  300B               	movlw	11
  7198  0638  008F               	movwf	15	;volatile
  7199  0639                     i1l2611:	
  7200                           
  7201                           ;Electric_Water_Heater.c: 82:                 PIR1bits.TMR1IF = 0;
  7202  0639  100C               	bcf	12,0	;volatile
  7203  063A                     i1l2613:	
  7204                           
  7205                           ;Electric_Water_Heater.c: 94:         if (INTCONbits.T0IF ==1){
  7206  063A  1D0B               	btfss	11,2	;volatile
  7207  063B  2E3D               	goto	u259_21
  7208  063C  2E3E               	goto	u259_20
  7209  063D                     u259_21:	
  7210  063D  2E50               	goto	i1l125
  7211  063E                     u259_20:	
  7212  063E                     i1l2615:	
  7213                           
  7214                           ;Electric_Water_Heater.c: 96:             Temp_Measure_counter ++ ;
  7215  063E  3001               	movlw	1
  7216  063F  00F4               	movwf	??_System_Interrupts
  7217  0640  0874               	movf	??_System_Interrupts,w
  7218  0641  07F8               	addwf	_Temp_Measure_counter,f	;volatile
  7219  0642                     i1l2617:	
  7220                           
  7221                           ;Electric_Water_Heater.c: 98:             if(Temp_Measure_counter >= 25 ){
  7222  0642  3019               	movlw	25
  7223  0643  0278               	subwf	_Temp_Measure_counter,w	;volatile
  7224  0644  1C03               	skipc
  7225  0645  2E47               	goto	u260_21
  7226  0646  2E48               	goto	u260_20
  7227  0647                     u260_21:	
  7228  0647  2E4D               	goto	i1l2623
  7229  0648                     u260_20:	
  7230  0648                     i1l2619:	
  7231                           
  7232                           ;Electric_Water_Heater.c: 99:                 Temp_Measure_counter = 0 ;
  7233  0648  01F8               	clrf	_Temp_Measure_counter	;volatile
  7234  0649                     i1l2621:	
  7235                           
  7236                           ;Electric_Water_Heater.c: 100:                 Temp_Measure_indication = 1 ;
  7237  0649  3001               	movlw	1
  7238  064A  00F4               	movwf	??_System_Interrupts
  7239  064B  0874               	movf	??_System_Interrupts,w
  7240  064C  00E9               	movwf	_Temp_Measure_indication	;volatile
  7241  064D                     i1l2623:	
  7242                           
  7243                           ;Electric_Water_Heater.c: 102:             TMR0 = 0x83 ;
  7244  064D  3083               	movlw	131
  7245  064E  0081               	movwf	1	;volatile
  7246  064F                     i1l2625:	
  7247                           
  7248                           ;Electric_Water_Heater.c: 103:             INTCONbits.T0IF = 0 ;
  7249  064F  110B               	bcf	11,2	;volatile
  7250  0650                     i1l125:	
  7251  0650  0877               	movf	??_System_Interrupts+3,w
  7252  0651  008A               	movwf	10
  7253  0652  0E76               	swapf	(??_System_Interrupts+2)^(0+4294967168),w
  7254  0653  0083               	movwf	3
  7255  0654  0EFE               	swapf	btemp,f
  7256  0655  0E7E               	swapf	btemp,w
  7257  0656  0009               	retfie
  7258  0657                     __end_of_System_Interrupts:	
  7259                           
  7260                           	psect	intentry
  7261  0004                     __pintentry:	
  7262                           ;incstack = 0
  7263 ;; hardware stack exceeded
  7264                           ; Regs used in _System_Interrupts: [wreg+status,2+status,0+pclath+cstack]
  7265                           
  7266  0004                     interrupt_function:	
  7267  007E                     saved_w	set	btemp
  7268  0004  00FE               	movwf	btemp
  7269  0005  0E03               	swapf	3,w
  7270  0006  00F6               	movwf	??_System_Interrupts+2
  7271  0007  080A               	movf	10,w
  7272  0008  00F7               	movwf	??_System_Interrupts+3
  7273  0009  120A  118A  2DE3   	ljmp	_System_Interrupts
  7274                           
  7275                           	psect	text48
  7276  0D42                     __ptext48:	
  7277 ;; *************** function _EEPROM_Read *****************
  7278 ;; Defined at:
  7279 ;;		line 9 in file "EEPROM.c"
  7280 ;; Parameters:    Size  Location     Type
  7281 ;;  Address         1    wreg     unsigned char 
  7282 ;; Auto vars:     Size  Location     Type
  7283 ;;  Address         1    3[COMMON] unsigned char 
  7284 ;; Return value:  Size  Location     Type
  7285 ;;                  1    wreg      unsigned char 
  7286 ;; Registers used:
  7287 ;;		wreg, status,2, status,0, pclath, cstack
  7288 ;; Tracked objects:
  7289 ;;		On entry : 0/0
  7290 ;;		On exit  : 0/0
  7291 ;;		Unchanged: 0/0
  7292 ;; Data sizes:     COMMON   BANK0   BANK1   BANK3   BANK2
  7293 ;;      Params:         0       0       0       0       0
  7294 ;;      Locals:         1       0       0       0       0
  7295 ;;      Temps:          0       0       0       0       0
  7296 ;;      Totals:         1       0       0       0       0
  7297 ;;Total ram usage:        1 bytes
  7298 ;; Hardware stack levels used:    1
  7299 ;; Hardware stack levels required when called:    2
  7300 ;; This function calls:
  7301 ;;		_I2C_Read_Byte
  7302 ;;		i1_I2C_Start
  7303 ;;		i1_I2C_Write_Byte
  7304 ;; This function is called by:
  7305 ;;		_System_Interrupts
  7306 ;; This function uses a non-reentrant model
  7307 ;;
  7308                           
  7309                           
  7310                           ;psect for function _EEPROM_Read
  7311  0D42                     _EEPROM_Read:	
  7312                           
  7313                           ;incstack = 0
  7314 ;; hardware stack exceeded
  7315                           ; Regs used in _EEPROM_Read: [wreg+status,2+status,0+pclath+cstack]
  7316                           ;EEPROM_Read@Address stored from wreg
  7317  0D42  00F3               	movwf	EEPROM_Read@Address
  7318  0D43                     i1l2507:	
  7319                           
  7320                           ;EEPROM.c: 9:  uint8_t EEPROM_Read(uint8_t Address);EEPROM.c: 10: {;EEPROM.c: 11:     I2
      +                          C_Start();
  7321  0D43  120A  158A  244D  120A  158A  	fcall	i1_I2C_Start
  7322                           
  7323                           ;EEPROM.c: 12:     I2C_Write_Byte(0xA0);
  7324  0D48  30A0               	movlw	160
  7325  0D49  120A  158A  2468  120A  158A  	fcall	i1_I2C_Write_Byte
  7326                           
  7327                           ;EEPROM.c: 14:     I2C_Write_Byte(Address);
  7328  0D4E  0873               	movf	EEPROM_Read@Address,w
  7329  0D4F  120A  158A  2468  120A  158A  	fcall	i1_I2C_Write_Byte
  7330                           
  7331                           ;EEPROM.c: 16:     I2C_Start();
  7332  0D54  120A  158A  244D  120A  158A  	fcall	i1_I2C_Start
  7333                           
  7334                           ;EEPROM.c: 17:     I2C_Write_Byte(0xA1);
  7335  0D59  30A1               	movlw	161
  7336  0D5A  120A  158A  2468  120A  158A  	fcall	i1_I2C_Write_Byte
  7337                           
  7338                           ;EEPROM.c: 19:  return I2C_Read_Byte(1);
  7339  0D5F  3001               	movlw	1
  7340  0D60  120A  158A  2566  120A  158A  	fcall	_I2C_Read_Byte
  7341  0D65                     i1l61:	
  7342  0D65  0008               	return
  7343  0D66                     __end_of_EEPROM_Read:	
  7344                           
  7345                           	psect	text49
  7346  0C68                     __ptext49:	
  7347 ;; *************** function i1_I2C_Write_Byte *****************
  7348 ;; Defined at:
  7349 ;;		line 41 in file "I2C.c"
  7350 ;; Parameters:    Size  Location     Type
  7351 ;;  val             1    wreg     unsigned char 
  7352 ;; Auto vars:     Size  Location     Type
  7353 ;;  val             1    0[COMMON] unsigned char 
  7354 ;; Return value:  Size  Location     Type
  7355 ;;                  1    wreg      void 
  7356 ;; Registers used:
  7357 ;;		wreg, status,2, status,0, pclath, cstack
  7358 ;; Tracked objects:
  7359 ;;		On entry : 0/0
  7360 ;;		On exit  : 0/0
  7361 ;;		Unchanged: 0/0
  7362 ;; Data sizes:     COMMON   BANK0   BANK1   BANK3   BANK2
  7363 ;;      Params:         0       0       0       0       0
  7364 ;;      Locals:         1       0       0       0       0
  7365 ;;      Temps:          0       0       0       0       0
  7366 ;;      Totals:         1       0       0       0       0
  7367 ;;Total ram usage:        1 bytes
  7368 ;; Hardware stack levels used:    1
  7369 ;; Hardware stack levels required when called:    1
  7370 ;; This function calls:
  7371 ;;		i1_I2C_Hold
  7372 ;; This function is called by:
  7373 ;;		_EEPROM_Read
  7374 ;; This function uses a non-reentrant model
  7375 ;;
  7376                           
  7377                           
  7378                           ;psect for function i1_I2C_Write_Byte
  7379  0C68                     i1_I2C_Write_Byte:	
  7380                           
  7381                           ;incstack = 0
  7382 ;; hardware stack exceeded
  7383                           ; Regs used in i1_I2C_Write_Byte: [wreg+status,2+status,0+pclath+cstack]
  7384                           ;i1I2C_Write_Byte@val stored from wreg
  7385  0C68  00F0               	movwf	i1I2C_Write_Byte@val
  7386  0C69                     i1l2503:	
  7387                           
  7388                           ;I2C.c: 41: void I2C_Write_Byte(uint8_t val);I2C.c: 42: {;I2C.c: 44:     I2C_Hold();
  7389  0C69  120A  158A  2473  120A  158A  	fcall	i1_I2C_Hold
  7390  0C6E                     i1l2505:	
  7391                           
  7392                           ;I2C.c: 45:     SSPBUF = val ;
  7393  0C6E  0870               	movf	i1I2C_Write_Byte@val,w
  7394  0C6F  1283               	bcf	3,5	;RP0=0, select bank0
  7395  0C70  1303               	bcf	3,6	;RP1=0, select bank0
  7396  0C71  0093               	movwf	19	;volatile
  7397  0C72                     i1l203:	
  7398  0C72  0008               	return
  7399  0C73                     __end_ofi1_I2C_Write_Byte:	
  7400                           
  7401                           	psect	text50
  7402  0C4D                     __ptext50:	
  7403 ;; *************** function i1_I2C_Start *****************
  7404 ;; Defined at:
  7405 ;;		line 23 in file "I2C.c"
  7406 ;; Parameters:    Size  Location     Type
  7407 ;;		None
  7408 ;; Auto vars:     Size  Location     Type
  7409 ;;		None
  7410 ;; Return value:  Size  Location     Type
  7411 ;;                  1    wreg      void 
  7412 ;; Registers used:
  7413 ;;		wreg, status,2, status,0, pclath, cstack
  7414 ;; Tracked objects:
  7415 ;;		On entry : 0/0
  7416 ;;		On exit  : 0/0
  7417 ;;		Unchanged: 0/0
  7418 ;; Data sizes:     COMMON   BANK0   BANK1   BANK3   BANK2
  7419 ;;      Params:         0       0       0       0       0
  7420 ;;      Locals:         0       0       0       0       0
  7421 ;;      Temps:          0       0       0       0       0
  7422 ;;      Totals:         0       0       0       0       0
  7423 ;;Total ram usage:        0 bytes
  7424 ;; Hardware stack levels used:    1
  7425 ;; Hardware stack levels required when called:    1
  7426 ;; This function calls:
  7427 ;;		i1_I2C_Hold
  7428 ;; This function is called by:
  7429 ;;		_EEPROM_Read
  7430 ;; This function uses a non-reentrant model
  7431 ;;
  7432                           
  7433                           
  7434                           ;psect for function i1_I2C_Start
  7435  0C4D                     i1_I2C_Start:	
  7436  0C4D                     i1l2499:	
  7437                           ;incstack = 0
  7438 ;; hardware stack exceeded
  7439                           ; Regs used in i1_I2C_Start: [wreg+status,2+status,0+pclath+cstack]
  7440                           
  7441                           
  7442                           ;I2C.c: 25:     I2C_Hold();
  7443  0C4D  120A  158A  2473  120A  158A  	fcall	i1_I2C_Hold
  7444  0C52                     i1l2501:	
  7445                           
  7446                           ;I2C.c: 26:       SSPCON2bits.SEN = 1 ;
  7447  0C52  1683               	bsf	3,5	;RP0=1, select bank1
  7448  0C53  1303               	bcf	3,6	;RP1=0, select bank1
  7449  0C54  1411               	bsf	17,0	;volatile
  7450  0C55                     i1l194:	
  7451  0C55  0008               	return
  7452  0C56                     __end_ofi1_I2C_Start:	
  7453                           
  7454                           	psect	text51
  7455  0D66                     __ptext51:	
  7456 ;; *************** function _I2C_Read_Byte *****************
  7457 ;; Defined at:
  7458 ;;		line 53 in file "I2C.c"
  7459 ;; Parameters:    Size  Location     Type
  7460 ;;  ack             1    wreg     unsigned char 
  7461 ;; Auto vars:     Size  Location     Type
  7462 ;;  ack             1    1[COMMON] unsigned char 
  7463 ;;  incoming        1    2[COMMON] unsigned char 
  7464 ;; Return value:  Size  Location     Type
  7465 ;;                  1    wreg      unsigned char 
  7466 ;; Registers used:
  7467 ;;		wreg, status,2, status,0, pclath, cstack
  7468 ;; Tracked objects:
  7469 ;;		On entry : 0/0
  7470 ;;		On exit  : 0/0
  7471 ;;		Unchanged: 0/0
  7472 ;; Data sizes:     COMMON   BANK0   BANK1   BANK3   BANK2
  7473 ;;      Params:         0       0       0       0       0
  7474 ;;      Locals:         2       0       0       0       0
  7475 ;;      Temps:          1       0       0       0       0
  7476 ;;      Totals:         3       0       0       0       0
  7477 ;;Total ram usage:        3 bytes
  7478 ;; Hardware stack levels used:    1
  7479 ;; Hardware stack levels required when called:    1
  7480 ;; This function calls:
  7481 ;;		i1_I2C_Hold
  7482 ;; This function is called by:
  7483 ;;		_EEPROM_Read
  7484 ;; This function uses a non-reentrant model
  7485 ;;
  7486                           
  7487                           
  7488                           ;psect for function _I2C_Read_Byte
  7489  0D66                     _I2C_Read_Byte:	
  7490                           
  7491                           ;incstack = 0
  7492 ;; hardware stack exceeded
  7493                           ; Regs used in _I2C_Read_Byte: [wreg+status,2+status,0+pclath+cstack]
  7494                           ;I2C_Read_Byte@ack stored from wreg
  7495  0D66  00F1               	movwf	I2C_Read_Byte@ack
  7496  0D67                     i1l2397:	
  7497                           
  7498                           ;I2C.c: 53:  uint8_t I2C_Read_Byte(uint8_t ack);I2C.c: 54: {;I2C.c: 55:      uint8_t inc
      +                          oming ;;I2C.c: 57:      I2C_Hold();
  7499  0D67  120A  158A  2473  120A  158A  	fcall	i1_I2C_Hold
  7500  0D6C                     i1l2399:	
  7501                           
  7502                           ;I2C.c: 58:      SSPCON2bits.RCEN =1 ;
  7503  0D6C  1683               	bsf	3,5	;RP0=1, select bank1
  7504  0D6D  1303               	bcf	3,6	;RP1=0, select bank1
  7505  0D6E  1591               	bsf	17,3	;volatile
  7506                           
  7507                           ;I2C.c: 60:      I2C_Hold();
  7508  0D6F  120A  158A  2473  120A  158A  	fcall	i1_I2C_Hold
  7509  0D74                     i1l2401:	
  7510                           
  7511                           ;I2C.c: 61:      incoming = SSPBUF;
  7512  0D74  1283               	bcf	3,5	;RP0=0, select bank0
  7513  0D75  1303               	bcf	3,6	;RP1=0, select bank0
  7514  0D76  0813               	movf	19,w	;volatile
  7515  0D77  00F0               	movwf	??_I2C_Read_Byte
  7516  0D78  0870               	movf	??_I2C_Read_Byte,w
  7517  0D79  00F2               	movwf	I2C_Read_Byte@incoming
  7518  0D7A                     i1l2403:	
  7519                           
  7520                           ;I2C.c: 63:      I2C_Hold();
  7521  0D7A  120A  158A  2473  120A  158A  	fcall	i1_I2C_Hold
  7522  0D7F                     i1l2405:	
  7523                           
  7524                           ;I2C.c: 64:      ACKDT = (ack) ? 0 : 1 ;
  7525  0D7F  0871               	movf	I2C_Read_Byte@ack,w
  7526  0D80  1903               	btfsc	3,2
  7527  0D81  2D83               	goto	u233_21
  7528  0D82  2D87               	goto	u233_20
  7529  0D83                     u233_21:	
  7530  0D83  1683               	bsf	3,5	;RP0=1, select bank1
  7531  0D84  1303               	bcf	3,6	;RP1=0, select bank1
  7532  0D85  1691               	bsf	17,5	;volatile
  7533  0D86  2D8A               	goto	u234_24
  7534  0D87                     u233_20:	
  7535  0D87  1683               	bsf	3,5	;RP0=1, select bank1
  7536  0D88  1303               	bcf	3,6	;RP1=0, select bank1
  7537  0D89  1291               	bcf	17,5	;volatile
  7538  0D8A                     u234_24:	
  7539  0D8A                     i1l2407:	
  7540                           
  7541                           ;I2C.c: 65:      ACKEN = 1;
  7542  0D8A  1611               	bsf	17,4	;volatile
  7543  0D8B                     i1l2409:	
  7544                           
  7545                           ;I2C.c: 66:      return incoming;
  7546  0D8B  0872               	movf	I2C_Read_Byte@incoming,w
  7547  0D8C                     i1l212:	
  7548  0D8C  0008               	return
  7549  0D8D                     __end_of_I2C_Read_Byte:	
  7550                           
  7551                           	psect	text52
  7552  0C73                     __ptext52:	
  7553 ;; *************** function i1_I2C_Hold *****************
  7554 ;; Defined at:
  7555 ;;		line 19 in file "I2C.c"
  7556 ;; Parameters:    Size  Location     Type
  7557 ;;		None
  7558 ;; Auto vars:     Size  Location     Type
  7559 ;;		None
  7560 ;; Return value:  Size  Location     Type
  7561 ;;                  1    wreg      void 
  7562 ;; Registers used:
  7563 ;;		wreg, status,2
  7564 ;; Tracked objects:
  7565 ;;		On entry : 0/0
  7566 ;;		On exit  : 0/0
  7567 ;;		Unchanged: 0/0
  7568 ;; Data sizes:     COMMON   BANK0   BANK1   BANK3   BANK2
  7569 ;;      Params:         0       0       0       0       0
  7570 ;;      Locals:         0       0       0       0       0
  7571 ;;      Temps:          0       0       0       0       0
  7572 ;;      Totals:         0       0       0       0       0
  7573 ;;Total ram usage:        0 bytes
  7574 ;; Hardware stack levels used:    1
  7575 ;; This function calls:
  7576 ;;		Nothing
  7577 ;; This function is called by:
  7578 ;;		_I2C_Read_Byte
  7579 ;;		i1_I2C_Start
  7580 ;;		i1_I2C_Write_Byte
  7581 ;; This function uses a non-reentrant model
  7582 ;;
  7583                           
  7584                           
  7585                           ;psect for function i1_I2C_Hold
  7586  0C73                     i1_I2C_Hold:	
  7587  0C73                     i1l2345:	
  7588                           ;incstack = 0
  7589 ;; hardware stack exceeded
  7590                           ; Regs used in i1_I2C_Hold: [wreg+status,2]
  7591                           
  7592  0C73                     i1l2347:	
  7593                           ;I2C.c: 21:     while ( (SSPCON2 & 0b00011111) || (SSPSTAT & 0b00000100) ) ;
  7594                           
  7595  0C73  1683               	bsf	3,5	;RP0=1, select bank1
  7596  0C74  1303               	bcf	3,6	;RP1=0, select bank1
  7597  0C75  0811               	movf	17,w	;volatile
  7598  0C76  391F               	andlw	31
  7599  0C77  1D03               	btfss	3,2
  7600  0C78  2C7A               	goto	u227_21
  7601  0C79  2C7B               	goto	u227_20
  7602  0C7A                     u227_21:	
  7603  0C7A  2C73               	goto	i1l2347
  7604  0C7B                     u227_20:	
  7605  0C7B                     i1l2349:	
  7606  0C7B  1914               	btfsc	20,2	;volatile
  7607  0C7C  2C7E               	goto	u228_21
  7608  0C7D  2C7F               	goto	u228_20
  7609  0C7E                     u228_21:	
  7610  0C7E  2C73               	goto	i1l2347
  7611  0C7F                     u228_20:	
  7612  0C7F                     i1l191:	
  7613  0C7F  0008               	return
  7614  0C80                     __end_ofi1_I2C_Hold:	
  7615  007E                     btemp	set	126	;btemp
  7616  007E                     wtemp0	set	126


Data Sizes:
    Strings     0
    Constant    0
    Data        1
    BSS         30
    Persistent  2
    Stack       0

Auto Spaces:
    Space          Size  Autos    Used
    COMMON           14      8      11
    BANK0            80     64      74
    BANK1            80      0      20
    BANK3            96      0       0
    BANK2            96      0       0

Pointer List with Targets:

    Calc_Temp_Avg@Array	PTR unsigned int  size(1) Largest target is 20
		 -> Temp_Measurments(BANK1[20]), 

    Add_New_Temp@Array	PTR unsigned int  size(1) Largest target is 20
		 -> Temp_Measurments(BANK1[20]), 


Critical Paths under _main in COMMON

    None.

Critical Paths under _System_Interrupts in COMMON

    _System_Interrupts->_EEPROM_Read
    _EEPROM_Read->_I2C_Read_Byte

Critical Paths under _main in BANK0

    _main->_Sys_Init
    _Task_ON_State->_Temp_Sensor_ADC_Read
    _Adjust_Temp->_Heating_LED_Toggle
    _Task_ChangeTemp_State->_Sev_Seg_Write_99
    _Sev_Seg_Write_99->___lwdiv
    _Sys_Init->_Temp_Array_Init
    _Temp_Array_Init->_Temp_Sensor_ADC_Read
    _Temp_Sensor_ADC_Read->___fltol
    ___fltol->___flmul
    ___flmul->___xxtofl
    _Calc_Temp_Avg->___lwdiv
    _EEPROM_Write->_I2C_Write_Byte
    _EEPROM_Init->_I2C_Init
    _I2C_Init->___aldiv
    ___aldiv->___wmul

Critical Paths under _System_Interrupts in BANK0

    None.

Critical Paths under _main in BANK1

    None.

Critical Paths under _System_Interrupts in BANK1

    None.

Critical Paths under _main in BANK3

    None.

Critical Paths under _System_Interrupts in BANK3

    None.

Critical Paths under _main in BANK2

    None.

Critical Paths under _System_Interrupts in BANK2

    None.

Call Graph Tables:

 ---------------------------------------------------------------------------------
 (Depth) Function   	        Calls       Base Space   Used Autos Params    Refs
 ---------------------------------------------------------------------------------
 (0) _main                                                 2     2      0   11607
                                             62 BANK0      2     2      0
                           _Sys_Init
              _Task_ChangeTemp_State
                     _Task_OFF_State
                      _Task_ON_State
 ---------------------------------------------------------------------------------
 (1) _Task_ON_State                                        1     1      0    5336
                                             59 BANK0      1     1      0
                       _Add_New_Temp
                        _Adjust_Temp
                      _Calc_Temp_Avg
                       _Down_Pressed
                    _Sev_Seg_Disable
                   _Sev_Seg_Write_99
               _Temp_Sensor_ADC_Read
                         _Up_Pressed
 ---------------------------------------------------------------------------------
 (2) _Adjust_Temp                                          2     2      0       0
                                              1 BANK0      2     2      0
                          _Fan_Start
                           _Fan_Stop
                       _Heater_Start
                        _Heater_Stop
                    _Heating_LED_Off
                     _Heating_LED_On
                 _Heating_LED_Toggle
 ---------------------------------------------------------------------------------
 (3) _Heating_LED_Toggle                                   1     1      0       0
                                              0 BANK0      1     1      0
 ---------------------------------------------------------------------------------
 (3) _Heating_LED_On                                       0     0      0       0
 ---------------------------------------------------------------------------------
 (3) _Heater_Start                                         0     0      0       0
 ---------------------------------------------------------------------------------
 (3) _Fan_Start                                            0     0      0       0
 ---------------------------------------------------------------------------------
 (2) _Add_New_Temp                                        10     8      2     287
                                              0 BANK0     10     8      2
 ---------------------------------------------------------------------------------
 (1) _Task_OFF_State                                       0     0      0       0
                           _Fan_Stop
                        _Heater_Stop
                    _Sev_Seg_Disable
 ---------------------------------------------------------------------------------
 (1) _Task_ChangeTemp_State                                1     1      0    1433
                                             14 BANK0      1     1      0
                       _Down_Pressed
                       _EEPROM_Write
                           _Fan_Stop
                        _Heater_Stop
                    _Heating_LED_Off
                    _Sev_Seg_Disable
                   _Sev_Seg_Write_99
                         _Up_Pressed
 ---------------------------------------------------------------------------------
 (2) _Up_Pressed                                           2     2      0       0
                                              0 BANK0      2     2      0
 ---------------------------------------------------------------------------------
 (2) _Sev_Seg_Write_99                                     6     4      2    1215
                                              8 BANK0      6     4      2
                     _Sev_Seg_Enable
                      _Sev_Seg_Write
                            ___lwdiv
                            ___lwmod
 ---------------------------------------------------------------------------------
 (3) ___lwmod                                              6     2      4     311
                                              0 BANK0      6     2      4
 ---------------------------------------------------------------------------------
 (3) _Sev_Seg_Write                                        2     0      2     174
                                              0 BANK0      2     0      2
 ---------------------------------------------------------------------------------
 (3) _Sev_Seg_Enable                                       3     3      0      22
                                              0 BANK0      3     3      0
 ---------------------------------------------------------------------------------
 (2) _Sev_Seg_Disable                                      0     0      0       0
 ---------------------------------------------------------------------------------
 (3) _Heating_LED_Off                                      0     0      0       0
 ---------------------------------------------------------------------------------
 (3) _Heater_Stop                                          0     0      0       0
 ---------------------------------------------------------------------------------
 (3) _Fan_Stop                                             0     0      0       0
 ---------------------------------------------------------------------------------
 (2) _Down_Pressed                                         2     2      0       0
                                              0 BANK0      2     2      0
 ---------------------------------------------------------------------------------
 (1) _Sys_Init                                             1     1      0    4838
                                             61 BANK0      1     1      0
                       _Buttons_Init
                        _EEPROM_Init
                       _EEPROM_Write
                           _Fan_Init
                        _Heater_Init
                   _Heating_LED_Init
                _ON_Button_EXTI_Init
                       _Sev_Seg_Init
                          _TMR0_Init
                          _TMR1_Init
                    _Temp_Array_Init
               _Temp_Sensor_ADC_Init
 ---------------------------------------------------------------------------------
 (2) _Temp_Sensor_ADC_Init                                 0     0      0       0
 ---------------------------------------------------------------------------------
 (2) _Temp_Array_Init                                      2     2      0    3902
                                             59 BANK0      2     2      0
                      _Calc_Temp_Avg
               _Temp_Sensor_ADC_Read
 ---------------------------------------------------------------------------------
 (2) _Temp_Sensor_ADC_Read                                 8     6      2    3143
                                             51 BANK0      8     6      2
                            ___flmul
                            ___fltol
                           ___xxtofl
 ---------------------------------------------------------------------------------
 (3) ___xxtofl                                            14    10      4     398
                                              0 BANK0     14    10      4
 ---------------------------------------------------------------------------------
 (3) ___fltol                                             11     7      4     305
                                             40 BANK0     11     7      4
                            ___flmul (ARG)
                           ___xxtofl (ARG)
 ---------------------------------------------------------------------------------
 (3) ___flmul                                             26    18      8    2417
                                             14 BANK0     26    18      8
                          __Umul8_16
                           ___xxtofl (ARG)
 ---------------------------------------------------------------------------------
 (4) __Umul8_16                                            9     7      2     799
                                              0 BANK0      9     7      2
 ---------------------------------------------------------------------------------
 (2) _Calc_Temp_Avg                                       12    10      2     691
                                              8 BANK0     12    10      2
                            ___lwdiv
 ---------------------------------------------------------------------------------
 (3) ___lwdiv                                              8     4      4     466
                                              0 BANK0      8     4      4
 ---------------------------------------------------------------------------------
 (2) _TMR1_Init                                            0     0      0       0
 ---------------------------------------------------------------------------------
 (2) _TMR0_Init                                            0     0      0       0
 ---------------------------------------------------------------------------------
 (2) _Sev_Seg_Init                                         0     0      0       0
 ---------------------------------------------------------------------------------
 (2) _ON_Button_EXTI_Init                                  0     0      0       0
 ---------------------------------------------------------------------------------
 (2) _Heating_LED_Init                                     0     0      0       0
 ---------------------------------------------------------------------------------
 (2) _Heater_Init                                          0     0      0       0
 ---------------------------------------------------------------------------------
 (2) _Fan_Init                                             0     0      0       0
 ---------------------------------------------------------------------------------
 (2) _EEPROM_Write                                         2     1      1     218
                                              1 BANK0      2     1      1
                          _I2C_Start
                           _I2C_Stop
                     _I2C_Write_Byte
 ---------------------------------------------------------------------------------
 (3) _I2C_Write_Byte                                       1     1      0      22
                                              0 BANK0      1     1      0
                           _I2C_Hold
 ---------------------------------------------------------------------------------
 (3) _I2C_Stop                                             0     0      0       0
                           _I2C_Hold
 ---------------------------------------------------------------------------------
 (3) _I2C_Start                                            0     0      0       0
                           _I2C_Hold
 ---------------------------------------------------------------------------------
 (4) _I2C_Hold                                             0     0      0       0
 ---------------------------------------------------------------------------------
 (2) _EEPROM_Init                                          0     0      0     718
                           _I2C_Init
 ---------------------------------------------------------------------------------
 (3) _I2C_Init                                             3     3      0     718
                                             21 BANK0      3     3      0
                            ___aldiv
                             ___wmul
 ---------------------------------------------------------------------------------
 (4) ___wmul                                               6     2      4     244
                                              0 BANK0      6     2      4
 ---------------------------------------------------------------------------------
 (4) ___aldiv                                             15     7      8     452
                                              6 BANK0     15     7      8
                             ___wmul (ARG)
 ---------------------------------------------------------------------------------
 (2) _Buttons_Init                                         0     0      0       0
 ---------------------------------------------------------------------------------
 Estimated maximum stack depth 4
 ---------------------------------------------------------------------------------
 (Depth) Function   	        Calls       Base Space   Used Autos Params    Refs
 ---------------------------------------------------------------------------------
 (6) _System_Interrupts                                    4     4      0      89
                                              4 COMMON     4     4      0
                        _EEPROM_Read
 ---------------------------------------------------------------------------------
 (7) _EEPROM_Read                                          1     1      0      89
                                              3 COMMON     1     1      0
                      _I2C_Read_Byte
                        i1_I2C_Start
                   i1_I2C_Write_Byte
 ---------------------------------------------------------------------------------
 (8) i1_I2C_Write_Byte                                     1     1      0      22
                                              0 COMMON     1     1      0
                         i1_I2C_Hold
 ---------------------------------------------------------------------------------
 (8) i1_I2C_Start                                          0     0      0       0
                         i1_I2C_Hold
 ---------------------------------------------------------------------------------
 (8) _I2C_Read_Byte                                        3     3      0      45
                                              0 COMMON     3     3      0
                         i1_I2C_Hold
 ---------------------------------------------------------------------------------
 (9) i1_I2C_Hold                                           0     0      0       0
 ---------------------------------------------------------------------------------
 Estimated maximum stack depth 9
 ---------------------------------------------------------------------------------

 Call Graph Graphs:

 _main (ROOT)
   _Sys_Init
     _Buttons_Init
     _EEPROM_Init
       _I2C_Init
         ___aldiv
           ___wmul (ARG)
         ___wmul
     _EEPROM_Write
       _I2C_Start
         _I2C_Hold
       _I2C_Stop
         _I2C_Hold
       _I2C_Write_Byte
         _I2C_Hold
     _Fan_Init
     _Heater_Init
     _Heating_LED_Init
     _ON_Button_EXTI_Init
     _Sev_Seg_Init
     _TMR0_Init
     _TMR1_Init
     _Temp_Array_Init
       _Calc_Temp_Avg
         ___lwdiv
       _Temp_Sensor_ADC_Read
         ___flmul
           __Umul8_16
           ___xxtofl (ARG)
         ___fltol
           ___flmul (ARG)
             __Umul8_16
             ___xxtofl (ARG)
           ___xxtofl (ARG)
         ___xxtofl
     _Temp_Sensor_ADC_Init
   _Task_ChangeTemp_State
     _Down_Pressed
     _EEPROM_Write
       _I2C_Start
         _I2C_Hold
       _I2C_Stop
         _I2C_Hold
       _I2C_Write_Byte
         _I2C_Hold
     _Fan_Stop
     _Heater_Stop
     _Heating_LED_Off
     _Sev_Seg_Disable
     _Sev_Seg_Write_99
       _Sev_Seg_Enable
       _Sev_Seg_Write
       ___lwdiv
       ___lwmod
     _Up_Pressed
   _Task_OFF_State
     _Fan_Stop
     _Heater_Stop
     _Sev_Seg_Disable
   _Task_ON_State
     _Add_New_Temp
     _Adjust_Temp
       _Fan_Start
       _Fan_Stop
       _Heater_Start
       _Heater_Stop
       _Heating_LED_Off
       _Heating_LED_On
       _Heating_LED_Toggle
     _Calc_Temp_Avg
       ___lwdiv
     _Down_Pressed
     _Sev_Seg_Disable
     _Sev_Seg_Write_99
       _Sev_Seg_Enable
       _Sev_Seg_Write
       ___lwdiv
       ___lwmod
     _Temp_Sensor_ADC_Read
       ___flmul
         __Umul8_16
         ___xxtofl (ARG)
       ___fltol
         ___flmul (ARG)
           __Umul8_16
           ___xxtofl (ARG)
         ___xxtofl (ARG)
       ___xxtofl
     _Up_Pressed

 _System_Interrupts (ROOT)
   _EEPROM_Read
     _I2C_Read_Byte
       i1_I2C_Hold
     i1_I2C_Start
       i1_I2C_Hold
     i1_I2C_Write_Byte
       i1_I2C_Hold

 Address spaces:
Name               Size   Autos  Total    Cost      Usage
BANK3               60      0       0       9        0.0%
BITBANK3            60      0       0       8        0.0%
SFR3                 0      0       0       4        0.0%
BITSFR3              0      0       0       4        0.0%
BANK2               60      0       0      11        0.0%
BITBANK2            60      0       0      10        0.0%
SFR2                 0      0       0       5        0.0%
BITSFR2              0      0       0       5        0.0%
BANK1               50      0      14       7       25.0%
BITBANK1            50      0       0       6        0.0%
SFR1                 0      0       0       2        0.0%
BITSFR1              0      0       0       2        0.0%
BANK0               50     40      4A       5       92.5%
BITBANK0            50      0       0       4        0.0%
SFR0                 0      0       0       1        0.0%
BITSFR0              0      0       0       1        0.0%
COMMON               E      8       B       1       78.6%
BITCOMMON            E      0       0       0        0.0%
CODE                 0      0       0       0        0.0%
DATA                 0      0      69      12        0.0%
ABS                  0      0      69       3        0.0%
NULL                 0      0       0       0        0.0%
STACK                0      0       0       2        0.0%
EEDATA             100      0       0       0        0.0%


Microchip Technology PIC Macro Assembler V2.10 build 88905656 
Symbol Table                                                                                   Wed Jul 15 03:09:40 2020

    Temp_Sensor_ADC_Read@result 0059              __size_of_I2C_Start 0009                     __CFG_CP$OFF 0000  
        __end_of_Sev_Seg_Enable 0D27                              l21 0C28                              l24 0C44  
                            l36 0D0B                              l29 0D41                              l64 07FD  
         __end_of_Sev_Seg_Write 0FB7                              l58 0C35                              fsr 0004  
           ___wmul@multiplicand 0022               I2C_Write_Byte@val 0020                     ?i1_I2C_Hold 0070  
           __Umul8_16@word_mpld 0026                   ?_Down_Pressed 0070         __end_of_Sev_Seg_Disable 0C23  
                           l203 0C99                             l222 0C1D                             l151 0C09  
                           l145 0C01                             l401 072F                             l225 0C11  
                           l161 0C19                             l322 06C0                             l314 07D9  
                           l219 0C3C                             l307 0CC8                             l404 0781  
                           l164 0C0D                             l148 0C15                             l228 0CB7  
                           l325 0FFF                             l158 0C05                             l430 0CA7  
                           l334 0566                             l191 0C8C                             l344 0EE2  
                           l185 0F6F                             l194 0C5E                             l427 0CDA  
                           l339 0E69                             l197 0C67                             l349 0E0A  
                           l462 0D10                             l472 0C2E                             l464 0D13  
                           l561 0D9B                             l626 045D                             l466 0D26  
                           l458 0FB6                             l563 0DB3                             l475 0725  
                           l636 04E5                             l469 0C22                             l398 0CF0  
                           l833 0F28                             l754 05CD                             l747 05E2  
                           l843 0EA5                             l757 05E2                             l950 038C  
                           l962 0380                             l956 02F8                             l990 0448  
                           l994 03F6                             _GIE 005F                             l988 03B1  
                           _RB0 0030                             _RB1 0031                             _RA3 002B  
                           _RB2 0032                             _RA4 002C                    __CFG_CPD$OFF 0000  
                           fsr0 0004                             indf 0000                    __CFG_FOSC$HS 0000  
                  ___flmul@aexp 0040                    ___flmul@bexp 0041                    ___flmul@sign 003B  
                  ___flmul@temp 0046                    ___flmul@prod 0042                    __CFG_LVP$OFF 0000  
                  ?i1_I2C_Start 0070                    ___fltol@exp1 0052                            l1001 0412  
                          l1002 041E                            l1007 0DCA                            l1009 0DDC  
                          l2001 05C2                            l2011 0EED                            l2003 05D2  
                          l2021 0F10                            l2013 0EF0                            l2101 01B6  
                          l2005 05D7                            l2023 0F16                            l2015 0EF7  
                          l2007 0EE3                            l2111 0256                            l2103 01CF  
                          l2025 0F17                            l2017 0EFB                            l2009 0EE7  
                          l2121 02C4                            l2113 027C                            l2105 01EC  
                          l2041 003E                            l2033 002C                            l2201 040C  
                          l2027 0F1E                            l2019 0EFF                            l2131 02DC  
                          l2123 02C8                            l2115 02A4                            l2107 0219  
                          l2051 005A                            l2043 0043                            l2035 0033  
                          l2211 043F                            l2203 0416                            l2221 0F34  
                          l2029 0F24                            l2141 02FD                            l2133 02DD  
                          l2125 02C9                            l2117 02AD                            l2109 0229  
                          l2061 006F                            l2053 005F                            l2045 0048  
                          l2037 0039                            l2213 0440                            l2205 0420  
                          l2301 0F8C                            l2223 0F37                            l2231 0C90  
                          l2143 0302                            l2151 0333                            l2135 02E1  
                          l2127 02D2                            l2119 02BB                            l2071 008B  
                          l2063 0074                            l2055 0065                            l2047 0050  
                          l2039 003D                            l2207 0436                            l2311 0D0F  
                          l2225 0F6E                            l2217 0F2C                            l2233 0C95  
                          l2161 0366                            l2153 0340                            l2145 0310  
                          l2137 02F5                            l2129 02D8                            l2081 00B6  
                          l2073 0090                            l2065 007C                            l2057 0069  
                          l2049 0052                            l2209 043B                            l2241 0C06  
                          l2305 0F8F                            l2219 0F30                            l2227 0C56  
                          l2235 0C5F                            l2163 0374                            l2155 034B  
                          l2147 0314                            l2091 0153                            l2083 00D3  
                          l2067 007E                            l2059 006A                            l2315 0D16  
                          l2331 0E80                            l2323 0E6A                            l2243 0C16  
                          l2251 0CA8                            l2229 0C5B                            l2237 0C64  
                          l2413 07DD                            l2165 0378                            l2157 035A  
                          l2149 032D                            l2093 015C                            l2085 00EF  
                          l2077 0099                            l2069 0086                            l2181 03B9  
                          l2173 0390                            l2253 0726                            l2245 0C0A  
                          l2421 0C1E                            l2333 0E84                            l2325 0E72  
                          l2341 0EA1                            l2351 0C23                            l2415 0BFE  
                          l2271 0EC1                            l2263 0EA9                            l2167 0379  
                          l2159 0364                            l2095 016C                            l2087 011B  
                          l2079 00A9                            l2191 03DB                            l2175 0395  
                          l2255 072C                            l2511 0FB7                            l2335 0E8E  
                          l2327 0E75                            l2431 0E5B                            l2423 0E3D  
                          l2239 0C12                            l2247 0C1A                            l2417 0C02  
                          l2353 0C3D                            l2273 0EC5                            l2169 0384  
                          l2097 0189                            l2089 0137                            l2193 03DF  
                          l2185 03C2                            l2177 0399                            l2257 0733  
                          l2521 0FEE                            l2513 0FD5                            l2249 0C0E  
                          l2281 0F70                            l2337 0E94                            l2329 0E7C  
                          l2441 06EF                            l2361 0D3E                            l2433 0E5D  
                          l2419 0C36                            l2275 0ECB                            l2099 0199  
                          l2195 03ED                            l2187 03C7                            l2179 03A9  
                          l2259 077D                            l2523 0FEF                            l2515 0FDA  
                          l2291 0F7D                            l2283 0F71                            l2339 0E9B  
                          l2443 06FD                            l2355 0D27                            l2435 0E62  
                          l2451 04E6                            l2531 0789      __size_of_System_Interrupts 0074  
                          l2277 0EDE                            l2269 0EAC                            l1901 0DC0  
                          l2197 03FD                            l2189 03D4                            l2525 0FF5  
                          l2517 0FE4                            l2381 0D08                            l2293 0F80  
                          l2285 0F74                            l2445 0707                            l2437 06C1  
                          l2357 0D2D                            l2429 0E41                            l2461 0538  
                          l2453 04FA                            l2541 07B4                            l2533 0794  
                          l1911 0C80                            l2471 0C2D                            l1903 0DC4  
                          l2199 0408                            l2519 0FE9                            l2375 0CF1  
                          l2295 0F83                            l2287 0F77                            l2447 070D  
                          l2439 06E9                            l2359 0D38                            l2367 0D40  
                          l2527 0CB8                            l2463 053F                            l2455 050C  
                          l2551 07D3                            l2543 07B9                            l2535 079E  
                          l2631 0E17                            l1921 0D95                            l1913 0C80  
                          l2481 0CA3                            l1905 0DD3                            l2473 0CDB  
                          l2377 0CF7                            l2721 0D1E                            l2297 0F86  
                          l2289 0F7A                            l2449 071B                            l2561 067C  
                          l2553 0657                            l2465 0545                            l2457 051C  
                          l2545 07C3                            l2537 07AA                            l2529 0782  
                          l2633 0E1D                            l1931 0449                            l1923 0DA2  
                          l2395 0C2F                            l1915 0C88                            l2475 0CC9  
                          l1907 0DD8                            l2491 0DE9                            l2483 0DDD  
                          l2379 0D02                            l2387 0D0A                            l2299 0F89  
                          l2571 06A2                            l2563 0686                            l2555 0666  
                          l2467 0557                            l2459 052E                            l2547 07CD  
                          l2539 07AB                            l2627 0E0B                            l1941 0470  
                          l1933 044C                            l1925 0DA9                            l1917 0D8D  
                          l2469 0C29                            l2477 0CD4                            l2493 0DF4  
                          l2485 0DE8                            l2573 06AD                            l2565 0691  
                          l2557 066D                            l2549 07D2                            l2717 0E2C  
                          l2629 0E11                            l2637 0E22                            l1951 0494  
                          l1943 0478                            l1935 0450                            l1927 0DAF  
                          l1919 0D91                            l2479 0C9A                            l2495 0DF8  
                          l2719 0F96                            l2575 06AE                            l2567 0692  
                          l2559 0677                            l1961 04C7                            l1953 049D  
                          l1945 0480                            l1937 0461                            l2497 0DFE  
                          l2577 06B4                            l2569 0698                            l1955 04AF  
                          l1947 0483                            l1963 04CD                            l1939 046C  
                          l1971 0567                            l1965 04D2                            l1957 04BD  
                          l1949 0490                            l1981 0593                            l1973 0574  
                          l1967 04DD                            l1959 04BE                            l1983 059B  
                          l1897 0DB7                            l1993 05A9                            l1985 059D  
                          l1977 057D                            l1899 0DB9                            l1987 05A1  
                          l1995 05BB                            l1979 0592             __end_of_Heater_Init 0C06  
                          u2000 0314                            u2001 0313                            u2010 0323  
                          u2020 0340                            u2021 033F                            u2030 035A  
                          u2110 03FC                            u2031 0359                            u2015 031E  
                          u2111 03FB                            u1400 0DAF                            u2200 0ECB  
                          u1320 0DC4                            u2040 0378                            u1401 0DAE  
                          u2201 0ECA                            u1321 0DC3                            u2041 0377  
                          u2025 033C                            u2105 03EE                            u1410 0450  
                          u2130 040C                            u2050 0395                            u2210 0E72  
                          u1411 044F                            u2035 0356                            u2131 040B  
                          u2051 0394                            u2211 0E71                            u1500 04D2  
                          u1420 0461                            u1340 0DD8                            u2140 0412  
                          u2060 0399                            u2300 0D3E                            u1501 04D1  
                          u1421 0460                            u1341 0DD7                            u2141 0411  
                          u2125 0401                            u2061 0398                            u2301 0D3D  
                          u1430 0480                            u1350 0C88                            u1510 0574  
                          u2150 0416                            u2070 03B9                            u2310 0CF7  
                          u2230 0E84                            u1431 047F                            u1351 0C87  
                          u1335 0DCB                            u1511 0573                            u2151 0415  
                          u2071 03B8                            u2311 0CF6                            u2231 0E83  
                          u1360 0C8C                            u1600 05D7                            u1520 058B  
                          u2160 042B                            u2320 0D08                            u2240 0E8E  
                          u2400 0557                            u1361 0C8B                            u1601 05D6  
                          u2321 0D07                            u2241 0E8D                            u2225 0E76  
                          u2401 0556                            u1450 0494                            u1370 0D95  
                          u1610 0EED                            u1530 05A1                            u2170 043B  
                          u2090 03DA                            u2410 0DFE                            u1451 0493  
                          u1371 0D94                            u1611 0EEC                            u1531 05A0  
                          u2171 043A                            u2091 03D9                            u2411 0DFD  
                          u1700 0048                            u1540 05A8                            u2180 043F  
                          u2260 0EA1                            u2420 0789                            u1445 0485  
                          u1701 0047                            u1541 05A7                            u1525 0586  
                          u2181 043E                            u2165 0426                            u2085 03CC  
                          u2261 0EA0                            u2245 0E8A                            u2405 0553  
                          u2421 0788                            u1470 04AF                            u1630 0EFF  
                          u1710 0069                            u2190 0733                            u2350 0E62  
                          u2430 07C3                            u1471 04AE                            u1631 0EFE  
                          u1711 0068                            u2191 0732                            u2255 0E95  
                          u2351 0E61                            u2431 07C2                            u1720 006F  
                          u1560 05BA                            u2360 04FA                            u2440 07CD  
                          u1465 0496                            u1385 0D9C                            u1625 0EF1  
                          u1721 006E                            u1561 05B9                            u2361 04F9  
                          u2441 07CC                            u1490 04CD                            u1650 0F10  
                          u1730 0074                            u1570 05C1                            u2290 0D2D  
                          u2450 066D                            u2370 050C                            u1491 04CC  
                          u1475 04AB                            u1395 0DA3                            u1651 0F0F  
                          u1811 017B                            u1731 0073                            u1571 05C0  
                          u1555 05AA                            u2291 0D2C                            u2451 066C  
                          u2371 050B                            u1812 0182                            u1740 008B  
                          u2460 0686                            u2380 052E                            u1485 04BF  
                          u1645 0F00                            u1901 0296                            u1821 01A8  
                          u1813 0189                            u1805 0155                            u1741 008A  
                          u2461 0685                            u2381 052D                            u2365 04F6  
                          u1670 0F24                            u1902 029D                            u1822 01AF  
                          u1750 0090                            u1590 05D2                            u2470 0691  
                          u2390 053F                            u1671 0F23                            u1655 0F0C  
                          u1903 02A4                            u1823 01B6                            u1751 008F  
                          u1591 05D1                            u2471 0690                            u2391 053E  
                          u2375 0508                            u1680 003D                            u2480 06A2  
                          u1665 0F18                            u1841 01DE                            u1761 00E1  
                          u1681 003C                            u1585 05C4                            u2617 0D33  
                          u2481 06A1                            u2385 052A                            u1930 02C8  
                          u1842 01E5                            u1762 00E8                            u1690 0043  
                          u2490 06AD                            u1931 02C7                            u1915 02A6  
                          u1851 020B                            u1843 01EC                            u1835 01B8  
                          u1771 00FD                            u1763 00EF                            u1691 0042  
                          u2627 0703                            u2491 06AC                            u1852 0212  
                          u1772 0104                            u1925 02BD                            u1861 0238  
                          u1853 0219                            u1781 0129                            u1773 010B  
                          u2637 0721                            u1950 02DC                            u1870 0262  
                          u1862 023F                            u1782 0130                            u1951 02DB  
                          u1863 0246                            u1791 0145                            u1783 0137  
                          u2647 0CFD                            u1960 02E1                            u1792 014C  
                          u1961 02E0                            u1945 02CB                            u1881 026E  
                          u1793 0153                            u2657 072A                            u1970 02F5  
                          u1890 028A                            u1882 0275                            u1971 02F4  
                          u1883 027C                            u1875 025D                            _PEIE 005E  
                          u1980 02FC                            u1981 02FB                            _INTE 005C  
                          u1990 0302                            _INTF 0059                            u1991 0301  
                          u1895 0285                            i1l61 0D65             __end_of_Heater_Stop 0C0E  
                          _TMR0 0001                    __CFG_WRT$OFF 0000          __size_of_Calc_Temp_Avg 003D  
                          _main 0E0B                __end_of_I2C_Hold 0C8D                __end_of_I2C_Init 0F70  
                          btemp 007E                __end_of_I2C_Stop 0C68                            start 000C  
      __end_ofi1_I2C_Write_Byte 0C73       __size_of_Heating_LED_Init 0007            __end_of_EEPROM_Write 07FE  
               ?_Sev_Seg_Enable 0070                  ??_Down_Pressed 0020                   ___fltol@sign1 0051  
               __end_of___aldiv 04E6                           ?_main 0070              Sev_Seg_Enable@Disp 0022  
                         _ACKEN 048C                           _ACKDT 048D                   __CFG_WDTE$OFF 0000  
               __end_of___flmul 038D                 __end_of___fltol 05E3        __end_of_Sev_Seg_Write_99 0726  
               __end_of___lwdiv 0F29                           i1l203 0C72                           i1l212 0D8C  
                         i1l125 0650                           i1l118 0635                           i1l191 0C7F  
               __end_of___lwmod 0EA6                           i1l194 0C55            __end_of_Heater_Start 0C1A  
                   _Adjust_Temp 04E6                           _TMR1H 000F                           _TMR1L 000E  
                         _PORTD 0008                           _TRISD 0088           _Task_ChangeTemp_State 0657  
            __size_of_TMR0_Init 000E                     _Actual_Temp 0062              __size_of_TMR1_Init 0012  
        __size_of_I2C_Read_Byte 0027              _Heating_LED_Toggle 0CA8               __end_of_I2C_Start 0C5F  
                __CFG_BOREN$OFF 0000                   ?_Buttons_Init 0070                           pclath 000A  
                         status 0003                           wtemp0 007E                __end_of_Fan_Init 0C02  
   __end_of_ON_Button_EXTI_Init 0C45         __size_of_Heating_LED_On 0004                __end_of_Fan_Stop 0C0A  
           ?_Heating_LED_Toggle 0070             __size_ofi1_I2C_Hold 000D            __size_of_EEPROM_Init 0007  
          __size_of_EEPROM_Read 0024                 __initialization 000F        Add_New_Temp@Newest_Value 0020  
                  __end_of_main 0E3A                   _Current_State 007A              __size_of_Fan_Start 0004  
                 _Calc_Temp_Avg 0EA6                          ??_main 005E            ??_Heating_LED_Toggle 0020  
              ?_Sev_Seg_Disable 0070                 _Temp_Array_Init 0DDD                     _Heater_Init 0C02  
                   _Heater_Stop 0C0A                          _ADRESH 001E                          _ADRESL 009E  
                ??_Buttons_Init 0020                __end_of_Sys_Init 1000            _Temp_Measure_counter 0078  
                        i1l2401 0D74                          i1l2403 0D7A                          i1l2405 0D7F  
                        i1l2501 0C52                          i1l2407 0D8A                          i1l2503 0C69  
                        i1l2345 0C73                          i1l2409 0D8B                          i1l2505 0C6E  
                        i1l2601 061D                          i1l2347 0C73                          i1l2507 0D43  
                        i1l2611 0639                          i1l2603 0621                          i1l2349 0C7B  
                        i1l2621 0649                          i1l2605 0627                          i1l2613 063A  
                        i1l2623 064D                          i1l2615 063E                          i1l2607 062B  
                        i1l2625 064F                          i1l2617 0642                          i1l2609 0631  
                        i1l2619 0648                          i1l2397 0D67                          i1l2581 05E7  
                        i1l2399 0D6C                          i1l2591 060A                          i1l2583 05EC  
                        i1l2593 060B                          i1l2585 05F0                          i1l2499 0C4D  
                        i1l2587 05FF                          i1l2595 060C                          i1l2579 05E3  
                        i1l2597 0612                          i1l2589 0604                          i1l2599 0618  
                        u233_20 0D87                          u233_21 0D83                          u250_20 05E7  
                        u250_21 05E6                          u234_24 0D8A                          u227_20 0C7B  
                        u251_20 05EC                          u227_21 0C7A                          u251_21 05EB  
                        u228_20 0C7F                          u260_20 0648                          u252_20 0604  
                        u228_21 0C7E                          u260_21 0647                          u252_21 0603  
                        u253_20 060A                          u253_21 0609                          u254_20 0612  
                        u254_21 0611                          u255_20 0618                          u255_21 0617  
                        u256_20 061D                          u256_21 061C                          u257_20 0627  
                        u257_21 0626                          u258_20 0631                          u258_21 0630  
                        u259_20 063E                          u259_21 063D                          _SSPADD 0093  
                        _SSPCON 0014                          _SSPBUF 0013                __end_of___xxtofl 0449  
            Calc_Temp_Avg@Array 0030                  __CFG_PWRTE$OFF 0000                      _Up_Pressed 0D27  
                 _I2C_Read_Byte 0D66               __end_of_TMR0_Init 0CA8               __end_of_TMR1_Init 0CDB  
                     ??___aldiv 002E                          ___wmul 0D8D                       ??___flmul 0036  
                     ??___fltol 004C                       ??___lwdiv 0024                       ??___lwmod 0024  
                ?_Calc_Temp_Avg 0028                ??_Task_OFF_State 0020                       ?_I2C_Hold 0070  
                     ?_I2C_Init 0070              __size_of__Umul8_16 0029          ?_Task_ChangeTemp_State 0070  
                     ?_I2C_Stop 0070                          saved_w 007E        __size_of_Heating_LED_Off 0004  
             __end_of_Fan_Start 0C16               EEPROM_Write@Value 0021                    ___xxtofl@arg 002A  
                  ___xxtofl@exp 0029                    ___xxtofl@val 0020            __size_ofi1_I2C_Start 0009  
       __end_of__initialization 0028            __end_of_Down_Pressed 0D0C    __end_of_Temp_Sensor_ADC_Init 0CF1  
  __end_of_Temp_Sensor_ADC_Read 0782                      ___fltol@f1 0048           __size_of_EEPROM_Write 0024  
                ?_I2C_Read_Byte 0070                  __pcstackCOMMON 0070                   ?_Sev_Seg_Init 0070  
                  __pidataBANK0 07FE         __end_of_Temp_Array_Init 0E0B                _Heating_LED_Init 0C36  
         __size_of_Heater_Start 0004                    ??i1_I2C_Hold 0070                       ?_Fan_Init 0070  
                    ??_I2C_Hold 0020                      ??_I2C_Init 0035                  _OPTION_REGbits 0081  
                     ?_Fan_Stop 0070                      ??_I2C_Stop 0020                    _EEPROM_Write 07DA  
                    __pbssBANK0 0060                      __pbssBANK1 00A0                    _Desired_Temp 0064  
                _Heating_LED_On 0C1A              __end_ofi1_I2C_Hold 0C80                    _Heater_Start 0C16  
              ??_Sev_Seg_Enable 0020               __end_of__Umul8_16 0DDD                  ??_Sev_Seg_Init 0020  
                    __pmaintext 0E0B                     ?_Up_Pressed 0070                 ??_Calc_Temp_Avg 002A  
                       ?___wmul 0020                      __pintentry 0004          __size_of_Task_ON_State 0058  
             ?i1_I2C_Write_Byte 0070            __end_of_Buttons_Init 0C29         __size_of_I2C_Write_Byte 000D  
                     ?_Sys_Init 0070              ??i1_I2C_Write_Byte 0070                    ?_Adjust_Temp 0070  
             ?_Sev_Seg_Write_99 0028                      ??_Fan_Init 0020                       ?___xxtofl 0020  
                    ??_Fan_Stop 0020              ??_Sev_Seg_Write_99 002A                         _SSPCON2 0091  
                       _SSPSTAT 0094          __end_of_Heating_LED_On 0C1E             i1I2C_Write_Byte@val 0070  
        __size_of_Sev_Seg_Write 0047                _Temp_Measurments 00A0                       _I2C_Start 0C56  
               ??_I2C_Read_Byte 0070               ??_Heating_LED_Off 0020                         ___aldiv 0449  
                       ___flmul 002C                         ___fltol 0567                 __size_of___wmul 0027  
                       ___lwdiv 0EE3                ?_Temp_Array_Init 0070         _Temp_Measure_indication 0069  
                       ___lwmod 0E6A                      ??_Sys_Init 005D                         __ptext1 0782  
                       __ptext2 04E6                         __ptext3 0CA8                         __ptext4 0C1A  
                       __ptext5 0C16                         __ptext6 0C12                         __ptext7 0E3A  
                       __ptext8 0CB8                         __ptext9 0657                I2C_Read_Byte@ack 0071  
                     _T1CONbits 0010            _Temp_Sensor_ADC_Init 0CDB            _Temp_Sensor_ADC_Read 0726  
                  ?_Heater_Init 0070                      ??___xxtofl 0024                    ?_Heater_Stop 0070  
              ___aldiv@dividend 002A           __size_of_Down_Pressed 001B                         clrloop0 0C46  
           __size_of_Up_Pressed 001B                   _Task_ON_State 0782            end_of_initialization 0028  
               ?_Heating_LED_On 0070                   ??_EEPROM_Init 0038                   ??_EEPROM_Read 0073  
                    ?_I2C_Start 0070                ___aldiv@quotient 0031    __size_of_ON_Button_EXTI_Init 0008  
                 _Sev_Seg_Write 0F70           I2C_Read_Byte@incoming 0072                       _TMR0_Init 0C9A  
       ??_Task_ChangeTemp_State 002E                       _TMR1_Init 0CC9                       _PORTBbits 0006  
                     _PORTCbits 0007           ?_Temp_Sensor_ADC_Init 0070                    _Down_Pressed 0CF1  
         ?_Temp_Sensor_ADC_Read 0053     __size_of_Heating_LED_Toggle 0010                   ?_Add_New_Temp 0020  
                 ___xxtofl@sign 0028                       _TRISAbits 0085                       _TRISBbits 0086  
                     _TRISCbits 0087               __size_of_I2C_Hold 000D               __size_of_I2C_Init 0047  
          __end_of_Sev_Seg_Init 0C2F                  ?_Task_ON_State 0070               __size_of_I2C_Stop 0009  
      __size_of_Sev_Seg_Disable 0005        __end_of_Heating_LED_Init 0C3D                     ___flmul@grs 003C  
                     _Fan_Start 0C12           __size_of_Buttons_Init 0006             __end_of_EEPROM_Init 0C36  
           __end_of_EEPROM_Read 0D66                  _I2C_Write_Byte 0C8D                  ?_Sev_Seg_Write 0020  
                __end_of___wmul 0DB4                Calc_Temp_Avg@Avg 002E                Calc_Temp_Avg@Sum 0031  
                    ?_TMR0_Init 0070                      ?_TMR1_Init 0070                  ??_Add_New_Temp 0022  
           start_initialization 000F            __size_of_Adjust_Temp 0081               __size_of_Fan_Init 0004  
             __size_of_Fan_Stop 0004                   ??i1_I2C_Start 0070                    _Buttons_Init 0C23  
                    ?_Fan_Start 0070                     ??_I2C_Start 0020          __end_of_I2C_Write_Byte 0C9A  
                  ??_Up_Pressed 0020                        ??___wmul 0024                       __Umul8_16 0DB4  
                   __pdataBANK0 0069          ??_Temp_Sensor_ADC_Init 0020          ??_Temp_Sensor_ADC_Read 0055  
             __size_of_Sys_Init 0049                       ___flmul@a 0032                       ___flmul@b 002E  
                   __pbssCOMMON 0078                       ___latbits 0002                 ??_Task_ON_State 005B  
                 __pcstackBANK0 0020            __size_of_Heater_Init 0004               __size_of___xxtofl 00BC  
               _Heating_LED_Off 0C0E            __size_of_Heater_Stop 0004       __size_ofi1_I2C_Write_Byte 000B  
               _Actual_Temp_Avg 0060         __size_of_Task_OFF_State 0011              __end_of_Up_Pressed 0D42  
                   _EEPROM_Init 0C2F                     _EEPROM_Read 0D42       __size_of_Sev_Seg_Write_99 0065  
           __end_ofi1_I2C_Start 0C56                       __pnvBANK0 0067               ??_Sev_Seg_Disable 0020  
                 I2C_Init@feq_K 0037                ___lwdiv@dividend 0022                 ?_I2C_Write_Byte 0070  
               ??_Sev_Seg_Write 0022                        ?___aldiv 0026                        ?___flmul 002E  
                      ?___fltol 0048                      ?__Umul8_16 0020                        ?___lwdiv 0020  
                      ?___lwmod 0020               Add_New_Temp@Array 0028           __end_of_Calc_Temp_Avg 0EE3  
                   ??_TMR0_Init 0020                     ??_TMR1_Init 0020           __size_of_Sev_Seg_Init 0006  
                      _I2C_Hold 0C80                        _I2C_Init 0F29                        _I2C_Stop 0C5F  
              ??_Heating_LED_On 0020                ___lwdiv@quotient 0025             _ON_Button_EXTI_Init 0C3D  
               ___aldiv@divisor 0026               interrupt_function 0004                 ___aldiv@counter 002F  
                ___wmul@product 0024                     ??_Fan_Start 0020            __end_of_Add_New_Temp 0E6A  
                     clear_ram0 0C45                        _PIE1bits 008C                        _PIR1bits 000C  
         __end_of_I2C_Read_Byte 0D8D            ?_ON_Button_EXTI_Init 0070                    _Sev_Seg_Init 0C29  
           Add_New_Temp@element 0029                      _ADCON0bits 001F                      _ADCON1bits 009F  
             ___wmul@multiplier 0020         __size_of_Sev_Seg_Enable 001B         __end_of_Heating_LED_Off 0C12  
__size_of_Task_ChangeTemp_State 006A   __end_of_Task_ChangeTemp_State 06C1                        _Fan_Init 0BFE  
                      _Fan_Stop 0C06        __size_of_Temp_Array_Init 002E                     i1_I2C_Start 0C4D  
             ?_Heating_LED_Init 0070              ??_Heating_LED_Init 0020                Temp_Array_Init@i 005C  
         ??_ON_Button_EXTI_Init 0020            Calc_Temp_Avg@element 0033                     ??__Umul8_16 0022  
              __size_of___aldiv 009D                __size_of___flmul 0361                __size_of___fltol 007C  
    __end_of_Heating_LED_Toggle 0CB8                __size_of___lwdiv 0046                __size_of___lwmod 003C  
                      _Sys_Init 0FB7                        ___xxtofl 038D                 ___lwdiv@divisor 0020  
         Sev_Seg_Write_99@Units 002C                 ___lwdiv@counter 0027                        __ptext10 0D27  
                      __ptext11 06C1                        __ptext20 0FB7                        __ptext12 0E6A  
                      __ptext21 0CDB                        __ptext13 0F70                        __ptext30 0CC9  
                      __ptext22 0DDD                        __ptext14 0D0C                        __ptext31 0C9A  
                      __ptext23 0726                        __ptext15 0C1E                        __ptext40 0C56  
                      __ptext32 0C29                        __ptext24 038D                        __ptext16 0C0E  
                      __ptext41 0C80                        __ptext33 0C3D                        __ptext25 0567  
                      __ptext17 0C0A                        __ptext50 0C4D                        __ptext42 0C2F  
                      __ptext34 0C36                        __ptext26 002C                        __ptext18 0C06  
                      __ptext51 0D66                        __ptext43 0F29                        __ptext35 0C02  
                      __ptext27 0DB4                        __ptext19 0CF1                        __ptext52 0C73  
                      __ptext44 0D8D                        __ptext36 0BFE                        __ptext28 0EA6  
                      __ptext45 0449                        __ptext37 07DA                        __ptext29 0EE3  
                      __ptext46 0C23                        __ptext38 0C8D                        __ptext47 05E3  
                      __ptext39 0C5F                        __ptext48 0D42                        __ptext49 0C68  
                _Task_OFF_State 0CB8                i1_I2C_Write_Byte 0C68                   ?_EEPROM_Write 0021  
             _System_Interrupts 05E3                   __size_of_main 002F                _Sev_Seg_Write_99 06C1  
                 ?_Heater_Start 0070              ?_System_Interrupts 0070                Sev_Seg_Write@Num 0020  
           _SettingMode_counter 0079             ??_System_Interrupts 0074                      i1_I2C_Hold 0C73  
                 ??_Adjust_Temp 0021                ?_Heating_LED_Off 0070                      _INTCONbits 000B  
        __end_of_Task_OFF_State 0CC9              EEPROM_Read@Address 0073                 _Sev_Seg_Disable 0C1E  
                ??_EEPROM_Write 0022       __end_of_System_Interrupts 0657           __size_of_Add_New_Temp 0030  
                      intlevel1 0000               ??_Temp_Array_Init 005B            Sev_Seg_Write_99@Tens 002D  
              ___lwmod@dividend 0022                    ?_EEPROM_Init 0070                    ?_EEPROM_Read 0070  
              ??_I2C_Write_Byte 0020                  ??_Heater_Start 0020               _Toggle_indication 0066  
                _Sev_Seg_Enable 0D0C          __Umul8_16@multiplicand 0020   __size_of_Temp_Sensor_ADC_Init 0016  
 __size_of_Temp_Sensor_ADC_Read 005C             Sev_Seg_Write_99@Num 0028                    _Add_New_Temp 0E3A  
                 ??_Heater_Init 0020                 ___lwmod@divisor 0020                   ??_Heater_Stop 0020  
           EEPROM_Write@Address 0022                 ___lwmod@counter 0025                 ?_Task_OFF_State 0070  
                  ___aldiv@sign 0030             _First_Temp_Measured 0067                     _SSPCON2bits 0091  
         __end_of_Task_ON_State 07DA             __end_of_Adjust_Temp 0567            __Umul8_16@multiplier 0028  
             __Umul8_16@product 0024  
